
DevBoard_7Segment.elf:     file format elf32-avr

Sections:
Idx Name          Size      VMA       LMA       File off  Algn
  0 .text         00001684  00000000  00000000  000000b4  2**1
                  CONTENTS, ALLOC, LOAD, READONLY, CODE
  1 .data         0000010e  00800060  00001684  00001738  2**0
                  CONTENTS, ALLOC, LOAD, DATA
  2 .bss          000000cf  0080016e  0080016e  00001846  2**0
                  ALLOC
  3 .eeprom       00000001  00810000  00810000  00001846  2**0
                  CONTENTS, ALLOC, LOAD, DATA
  4 .stab         00000024  00000000  00000000  00001848  2**2
                  CONTENTS, READONLY, DEBUGGING
  5 .stabstr      0000002a  00000000  00000000  0000186c  2**0
                  CONTENTS, READONLY, DEBUGGING
  6 .comment      00000030  00000000  00000000  00001896  2**0
                  CONTENTS, READONLY
  7 .note.gnu.avr.deviceinfo 0000003c  00000000  00000000  000018c8  2**2
                  CONTENTS, READONLY
  8 .debug_aranges 000002d8  00000000  00000000  00001908  2**3
                  CONTENTS, READONLY, DEBUGGING
  9 .debug_info   00002ee7  00000000  00000000  00001be0  2**0
                  CONTENTS, READONLY, DEBUGGING
 10 .debug_abbrev 000011fa  00000000  00000000  00004ac7  2**0
                  CONTENTS, READONLY, DEBUGGING
 11 .debug_line   00001d43  00000000  00000000  00005cc1  2**0
                  CONTENTS, READONLY, DEBUGGING
 12 .debug_frame  0000061c  00000000  00000000  00007a04  2**2
                  CONTENTS, READONLY, DEBUGGING
 13 .debug_str    00000bb0  00000000  00000000  00008020  2**0
                  CONTENTS, READONLY, DEBUGGING
 14 .debug_loc    000019d8  00000000  00000000  00008bd0  2**0
                  CONTENTS, READONLY, DEBUGGING
 15 .debug_ranges 00000300  00000000  00000000  0000a5a8  2**0
                  CONTENTS, READONLY, DEBUGGING

Disassembly of section .text:

00000000 <__vectors>:
       0:	0c 94 4e 00 	jmp	0x9c	; 0x9c <__ctors_end>
       4:	0c 94 6b 00 	jmp	0xd6	; 0xd6 <__bad_interrupt>
       8:	0c 94 6b 00 	jmp	0xd6	; 0xd6 <__bad_interrupt>
       c:	0c 94 6b 00 	jmp	0xd6	; 0xd6 <__bad_interrupt>
      10:	0c 94 6b 00 	jmp	0xd6	; 0xd6 <__bad_interrupt>
      14:	0c 94 6b 00 	jmp	0xd6	; 0xd6 <__bad_interrupt>
      18:	0c 94 6b 00 	jmp	0xd6	; 0xd6 <__bad_interrupt>
      1c:	0c 94 37 08 	jmp	0x106e	; 0x106e <__vector_7>
      20:	0c 94 6b 00 	jmp	0xd6	; 0xd6 <__bad_interrupt>
      24:	0c 94 6b 00 	jmp	0xd6	; 0xd6 <__bad_interrupt>
      28:	0c 94 6b 00 	jmp	0xd6	; 0xd6 <__bad_interrupt>
      2c:	0c 94 6b 00 	jmp	0xd6	; 0xd6 <__bad_interrupt>
      30:	0c 94 6b 00 	jmp	0xd6	; 0xd6 <__bad_interrupt>
      34:	0c 94 38 04 	jmp	0x870	; 0x870 <__vector_13>
      38:	0c 94 64 04 	jmp	0x8c8	; 0x8c8 <__vector_14>
      3c:	0c 94 6b 00 	jmp	0xd6	; 0xd6 <__bad_interrupt>
      40:	0c 94 6b 00 	jmp	0xd6	; 0xd6 <__bad_interrupt>
      44:	0c 94 6b 00 	jmp	0xd6	; 0xd6 <__bad_interrupt>
      48:	0c 94 6b 00 	jmp	0xd6	; 0xd6 <__bad_interrupt>
      4c:	0c 94 6b 00 	jmp	0xd6	; 0xd6 <__bad_interrupt>
      50:	0c 94 6b 00 	jmp	0xd6	; 0xd6 <__bad_interrupt>
      54:	12 02       	muls	r17, r18
      56:	3d 02       	muls	r19, r29
      58:	3d 02       	muls	r19, r29
      5a:	3d 02       	muls	r19, r29
      5c:	3d 02       	muls	r19, r29
      5e:	18 02       	muls	r17, r24
      60:	3d 02       	muls	r19, r29
      62:	3d 02       	muls	r19, r29
      64:	3d 02       	muls	r19, r29
      66:	3d 02       	muls	r19, r29
      68:	1d 02       	muls	r17, r29
      6a:	3d 02       	muls	r19, r29
      6c:	3d 02       	muls	r19, r29
      6e:	3d 02       	muls	r19, r29
      70:	3d 02       	muls	r19, r29
      72:	23 02       	muls	r18, r19
      74:	3d 02       	muls	r19, r29
      76:	3d 02       	muls	r19, r29
      78:	3d 02       	muls	r19, r29
      7a:	3d 02       	muls	r19, r29
      7c:	28 02       	muls	r18, r24
      7e:	3d 02       	muls	r19, r29
      80:	3d 02       	muls	r19, r29
      82:	3d 02       	muls	r19, r29
      84:	3d 02       	muls	r19, r29
      86:	2e 02       	muls	r18, r30
      88:	3d 02       	muls	r19, r29
      8a:	3d 02       	muls	r19, r29
      8c:	3d 02       	muls	r19, r29
      8e:	3d 02       	muls	r19, r29
      90:	33 02       	muls	r19, r19
      92:	3d 02       	muls	r19, r29
      94:	3d 02       	muls	r19, r29
      96:	3d 02       	muls	r19, r29
      98:	3d 02       	muls	r19, r29
      9a:	39 02       	muls	r19, r25

0000009c <__ctors_end>:
      9c:	11 24       	eor	r1, r1
      9e:	1f be       	out	0x3f, r1	; 63
      a0:	cf e5       	ldi	r28, 0x5F	; 95
      a2:	d8 e0       	ldi	r29, 0x08	; 8
      a4:	de bf       	out	0x3e, r29	; 62
      a6:	cd bf       	out	0x3d, r28	; 61

000000a8 <__do_copy_data>:
      a8:	11 e0       	ldi	r17, 0x01	; 1
      aa:	a0 e6       	ldi	r26, 0x60	; 96
      ac:	b0 e0       	ldi	r27, 0x00	; 0
      ae:	e4 e8       	ldi	r30, 0x84	; 132
      b0:	f6 e1       	ldi	r31, 0x16	; 22
      b2:	02 c0       	rjmp	.+4      	; 0xb8 <__do_copy_data+0x10>
      b4:	05 90       	lpm	r0, Z+
      b6:	0d 92       	st	X+, r0
      b8:	ae 36       	cpi	r26, 0x6E	; 110
      ba:	b1 07       	cpc	r27, r17
      bc:	d9 f7       	brne	.-10     	; 0xb4 <__do_copy_data+0xc>

000000be <__do_clear_bss>:
      be:	22 e0       	ldi	r18, 0x02	; 2
      c0:	ae e6       	ldi	r26, 0x6E	; 110
      c2:	b1 e0       	ldi	r27, 0x01	; 1
      c4:	01 c0       	rjmp	.+2      	; 0xc8 <.do_clear_bss_start>

000000c6 <.do_clear_bss_loop>:
      c6:	1d 92       	st	X+, r1

000000c8 <.do_clear_bss_start>:
      c8:	ad 33       	cpi	r26, 0x3D	; 61
      ca:	b2 07       	cpc	r27, r18
      cc:	e1 f7       	brne	.-8      	; 0xc6 <.do_clear_bss_loop>
      ce:	0e 94 88 07 	call	0xf10	; 0xf10 <main>
      d2:	0c 94 40 0b 	jmp	0x1680	; 0x1680 <_exit>

000000d6 <__bad_interrupt>:
      d6:	0c 94 00 00 	jmp	0	; 0x0 <__vectors>

000000da <i2c_delay_T2>:
;*************************************************************************
	.stabs	"",100,0,0,i2c_delay_T2
	.stabs	"i2cmaster.S",100,0,0,i2c_delay_T2
	.func i2c_delay_T2	; delay 5.0 microsec with 4 Mhz crystal	
i2c_delay_T2:        ; 4 cycles
	rjmp 1f      ; 2   "
      da:	00 c0       	rjmp	.+0      	; 0xdc <i2c_delay_T2+0x2>
1:	rjmp 2f      ; 2   "
      dc:	00 c0       	rjmp	.+0      	; 0xde <i2c_delay_T2+0x4>
2:	rjmp 3f      ; 2   "
      de:	00 c0       	rjmp	.+0      	; 0xe0 <i2c_delay_T2+0x6>
3:	rjmp 4f      ; 2   "
      e0:	00 c0       	rjmp	.+0      	; 0xe2 <i2c_delay_T2+0x8>
4:	rjmp 5f      ; 2   "
      e2:	00 c0       	rjmp	.+0      	; 0xe4 <i2c_delay_T2+0xa>
5: 	rjmp 6f      ; 2   "
      e4:	00 c0       	rjmp	.+0      	; 0xe6 <i2c_delay_T2+0xc>
6:	nop          ; 1   "
      e6:	00 00       	nop
	ret          ; 3   "
      e8:	08 95       	ret

000000ea <i2c_init>:
; extern void i2c_init(void)
;*************************************************************************
	.global i2c_init
	.func i2c_init
i2c_init:
	cbi SDA_DDR,SDA		;release SDA
      ea:	a1 98       	cbi	0x14, 1	; 20
	cbi SCL_DDR,SCL		;release SCL
      ec:	a0 98       	cbi	0x14, 0	; 20
	cbi SDA_OUT,SDA
      ee:	a9 98       	cbi	0x15, 1	; 21
	cbi SCL_OUT,SCL
      f0:	a8 98       	cbi	0x15, 0	; 21
	ret
      f2:	08 95       	ret

000000f4 <i2c_start>:
;*************************************************************************

	.global i2c_start
	.func   i2c_start
i2c_start:
	sbi 	SDA_DDR,SDA	;force SDA low
      f4:	a1 9a       	sbi	0x14, 1	; 20
	rcall 	i2c_delay_T2	;delay T/2
      f6:	f1 df       	rcall	.-30     	; 0xda <i2c_delay_T2>
	
	rcall 	i2c_write	;write address
      f8:	1d d0       	rcall	.+58     	; 0x134 <i2c_write>
	ret
      fa:	08 95       	ret

000000fc <i2c_rep_start>:
;*************************************************************************

	.global i2c_rep_start
	.func	i2c_rep_start
i2c_rep_start:
	sbi	SCL_DDR,SCL	;force SCL low
      fc:	a0 9a       	sbi	0x14, 0	; 20
	rcall 	i2c_delay_T2	;delay  T/2
      fe:	ed df       	rcall	.-38     	; 0xda <i2c_delay_T2>
	cbi	SDA_DDR,SDA	;release SDA
     100:	a1 98       	cbi	0x14, 1	; 20
	rcall	i2c_delay_T2	;delay T/2
     102:	eb df       	rcall	.-42     	; 0xda <i2c_delay_T2>
	cbi	SCL_DDR,SCL	;release SCL
     104:	a0 98       	cbi	0x14, 0	; 20
	rcall 	i2c_delay_T2	;delay  T/2
     106:	e9 df       	rcall	.-46     	; 0xda <i2c_delay_T2>
	sbi 	SDA_DDR,SDA	;force SDA low
     108:	a1 9a       	sbi	0x14, 1	; 20
	rcall 	i2c_delay_T2	;delay	T/2
     10a:	e7 df       	rcall	.-50     	; 0xda <i2c_delay_T2>
	
	rcall	i2c_write	;write address
     10c:	13 d0       	rcall	.+38     	; 0x134 <i2c_write>
	ret
     10e:	08 95       	ret

00000110 <i2c_start_wait>:
;*************************************************************************

	.global i2c_start_wait
	.func   i2c_start_wait
i2c_start_wait:
	mov	__tmp_reg__,r24
     110:	08 2e       	mov	r0, r24

00000112 <i2c_start_wait1>:
i2c_start_wait1:
	sbi 	SDA_DDR,SDA	;force SDA low
     112:	a1 9a       	sbi	0x14, 1	; 20
	rcall 	i2c_delay_T2	;delay T/2
     114:	e2 df       	rcall	.-60     	; 0xda <i2c_delay_T2>
	mov	r24,__tmp_reg__
     116:	80 2d       	mov	r24, r0
	rcall 	i2c_write	;write address
     118:	0d d0       	rcall	.+26     	; 0x134 <i2c_write>
	tst	r24		;if device not busy -> done
     11a:	88 23       	and	r24, r24
	breq	i2c_start_wait_done
     11c:	11 f0       	breq	.+4      	; 0x122 <i2c_start_wait_done>
	rcall	i2c_stop	;terminate write operation
     11e:	02 d0       	rcall	.+4      	; 0x124 <i2c_stop>
	rjmp	i2c_start_wait1	;device busy, poll ack again
     120:	f8 cf       	rjmp	.-16     	; 0x112 <i2c_start_wait1>

00000122 <i2c_start_wait_done>:
i2c_start_wait_done:
	ret
     122:	08 95       	ret

00000124 <i2c_stop>:
;*************************************************************************

	.global	i2c_stop
	.func	i2c_stop
i2c_stop:
	sbi	SCL_DDR,SCL	;force SCL low
     124:	a0 9a       	sbi	0x14, 0	; 20
	sbi	SDA_DDR,SDA	;force SDA low
     126:	a1 9a       	sbi	0x14, 1	; 20
	rcall	i2c_delay_T2	;delay T/2
     128:	d8 df       	rcall	.-80     	; 0xda <i2c_delay_T2>
	cbi	SCL_DDR,SCL	;release SCL
     12a:	a0 98       	cbi	0x14, 0	; 20
	rcall	i2c_delay_T2	;delay T/2
     12c:	d6 df       	rcall	.-84     	; 0xda <i2c_delay_T2>
	cbi	SDA_DDR,SDA	;release SDA
     12e:	a1 98       	cbi	0x14, 1	; 20
	rcall	i2c_delay_T2	;delay T/2
     130:	d4 df       	rcall	.-88     	; 0xda <i2c_delay_T2>
	ret
     132:	08 95       	ret

00000134 <i2c_write>:
;	data = r24,  return = r25(=0):r24
;*************************************************************************
	.global i2c_write
	.func	i2c_write
i2c_write:
	sec			;set carry flag
     134:	08 94       	sec
	rol 	r24		;shift in carry and out bit one
     136:	88 1f       	adc	r24, r24
	rjmp	i2c_write_first
     138:	01 c0       	rjmp	.+2      	; 0x13c <i2c_write_first>

0000013a <i2c_write_bit>:
i2c_write_bit:
	lsl	r24		;if transmit register empty
     13a:	88 0f       	add	r24, r24

0000013c <i2c_write_first>:
i2c_write_first:
	breq	i2c_get_ack
     13c:	59 f0       	breq	.+22     	; 0x154 <i2c_get_ack>
	sbi	SCL_DDR,SCL	;force SCL low
     13e:	a0 9a       	sbi	0x14, 0	; 20
	brcc	i2c_write_low
     140:	18 f4       	brcc	.+6      	; 0x148 <i2c_write_low>
	nop
     142:	00 00       	nop
	cbi	SDA_DDR,SDA	;release SDA
     144:	a1 98       	cbi	0x14, 1	; 20
	rjmp	i2c_write_high
     146:	02 c0       	rjmp	.+4      	; 0x14c <i2c_write_high>

00000148 <i2c_write_low>:
i2c_write_low:
	sbi	SDA_DDR,SDA	;force SDA low
     148:	a1 9a       	sbi	0x14, 1	; 20
	rjmp	i2c_write_high
     14a:	00 c0       	rjmp	.+0      	; 0x14c <i2c_write_high>

0000014c <i2c_write_high>:
i2c_write_high:
	rcall 	i2c_delay_T2	;delay T/2
     14c:	c6 df       	rcall	.-116    	; 0xda <i2c_delay_T2>
	cbi	SCL_DDR,SCL	;release SCL
     14e:	a0 98       	cbi	0x14, 0	; 20
	rcall	i2c_delay_T2	;delay T/2
     150:	c4 df       	rcall	.-120    	; 0xda <i2c_delay_T2>
	rjmp	i2c_write_bit
     152:	f3 cf       	rjmp	.-26     	; 0x13a <i2c_write_bit>

00000154 <i2c_get_ack>:
	
i2c_get_ack:
	sbi	SCL_DDR,SCL	;force SCL low
     154:	a0 9a       	sbi	0x14, 0	; 20
	cbi	SDA_DDR,SDA	;release SDA
     156:	a1 98       	cbi	0x14, 1	; 20
	rcall	i2c_delay_T2	;delay T/2
     158:	c0 df       	rcall	.-128    	; 0xda <i2c_delay_T2>
	cbi	SCL_DDR,SCL	;release SCL
     15a:	a0 98       	cbi	0x14, 0	; 20

0000015c <i2c_ack_wait>:
i2c_ack_wait:
	sbis	SCL_IN,SCL	;wait SCL high (in case wait states are inserted)
     15c:	98 9b       	sbis	0x13, 0	; 19
	rjmp	i2c_ack_wait
     15e:	fe cf       	rjmp	.-4      	; 0x15c <i2c_ack_wait>
	
	clr	r24		;return 0
     160:	88 27       	eor	r24, r24
	sbic	SDA_IN,SDA	;if SDA high -> return 1
     162:	99 99       	sbic	0x13, 1	; 19
	ldi	r24,1
     164:	81 e0       	ldi	r24, 0x01	; 1
	rcall	i2c_delay_T2	;delay T/2
     166:	b9 df       	rcall	.-142    	; 0xda <i2c_delay_T2>
	clr	r25
     168:	99 27       	eor	r25, r25
	ret
     16a:	08 95       	ret

0000016c <i2c_readNak>:
	.global i2c_readAck
	.global i2c_readNak
	.global i2c_read		
	.func	i2c_read
i2c_readNak:
	clr	r24
     16c:	88 27       	eor	r24, r24
	rjmp	i2c_read
     16e:	01 c0       	rjmp	.+2      	; 0x172 <i2c_read>

00000170 <i2c_readAck>:
i2c_readAck:
	ldi	r24,0x01
     170:	81 e0       	ldi	r24, 0x01	; 1

00000172 <i2c_read>:
i2c_read:
	ldi	r23,0x01	;data = 0x01
     172:	71 e0       	ldi	r23, 0x01	; 1

00000174 <i2c_read_bit>:
i2c_read_bit:
	sbi	SCL_DDR,SCL	;force SCL low
     174:	a0 9a       	sbi	0x14, 0	; 20
	cbi	SDA_DDR,SDA	;release SDA (from previous ACK)
     176:	a1 98       	cbi	0x14, 1	; 20
	rcall	i2c_delay_T2	;delay T/2
     178:	b0 df       	rcall	.-160    	; 0xda <i2c_delay_T2>
	
	cbi	SCL_DDR,SCL	;release SCL
     17a:	a0 98       	cbi	0x14, 0	; 20
	rcall	i2c_delay_T2	;delay T/2
     17c:	ae df       	rcall	.-164    	; 0xda <i2c_delay_T2>

0000017e <i2c_read_stretch>:
	
i2c_read_stretch:
    sbis SCL_IN, SCL        ;loop until SCL is high (allow slave to stretch SCL)
     17e:	98 9b       	sbis	0x13, 0	; 19
    rjmp	i2c_read_stretch
     180:	fe cf       	rjmp	.-4      	; 0x17e <i2c_read_stretch>
    	
	clc			;clear carry flag
     182:	88 94       	clc
	sbic	SDA_IN,SDA	;if SDA is high
     184:	99 99       	sbic	0x13, 1	; 19
	sec			;  set carry flag
     186:	08 94       	sec
	
	rol	r23		;store bit
     188:	77 1f       	adc	r23, r23
	brcc	i2c_read_bit	;while receive register not full
     18a:	a0 f7       	brcc	.-24     	; 0x174 <i2c_read_bit>

0000018c <i2c_put_ack>:
	
i2c_put_ack:
	sbi	SCL_DDR,SCL	;force SCL low	
     18c:	a0 9a       	sbi	0x14, 0	; 20
	cpi	r24,1
     18e:	81 30       	cpi	r24, 0x01	; 1
	breq	i2c_put_ack_low	;if (ack=0)
     190:	11 f0       	breq	.+4      	; 0x196 <i2c_put_ack_low>
	cbi	SDA_DDR,SDA	;      release SDA
     192:	a1 98       	cbi	0x14, 1	; 20
	rjmp	i2c_put_ack_high
     194:	01 c0       	rjmp	.+2      	; 0x198 <i2c_put_ack_high>

00000196 <i2c_put_ack_low>:
i2c_put_ack_low:                ;else
	sbi	SDA_DDR,SDA	;      force SDA low
     196:	a1 9a       	sbi	0x14, 1	; 20

00000198 <i2c_put_ack_high>:
i2c_put_ack_high:
	rcall	i2c_delay_T2	;delay T/2
     198:	a0 df       	rcall	.-192    	; 0xda <i2c_delay_T2>
	cbi	SCL_DDR,SCL	;release SCL
     19a:	a0 98       	cbi	0x14, 0	; 20

0000019c <i2c_put_ack_wait>:
i2c_put_ack_wait:
	sbis	SCL_IN,SCL	;wait SCL high
     19c:	98 9b       	sbis	0x13, 0	; 19
	rjmp	i2c_put_ack_wait
     19e:	fe cf       	rjmp	.-4      	; 0x19c <i2c_put_ack_wait>
	rcall	i2c_delay_T2	;delay T/2
     1a0:	9c df       	rcall	.-200    	; 0xda <i2c_delay_T2>
	mov	r24,r23
     1a2:	87 2f       	mov	r24, r23
	clr	r25
     1a4:	99 27       	eor	r25, r25
	ret
     1a6:	08 95       	ret

000001a8 <buildVer>:
	static char build[] = "000000000000000000000000";
	
	/*
	*	major and minor version
	*/
	build[0] = verMajor;
     1a8:	e0 e6       	ldi	r30, 0x60	; 96
     1aa:	f0 e0       	ldi	r31, 0x00	; 0
     1ac:	41 e3       	ldi	r20, 0x31	; 49
     1ae:	40 83       	st	Z, r20
	build[1] = '.';
     1b0:	2e e2       	ldi	r18, 0x2E	; 46
     1b2:	21 83       	std	Z+1, r18	; 0x01
	build[2] = ' ';
     1b4:	90 e2       	ldi	r25, 0x20	; 32
     1b6:	92 83       	std	Z+2, r25	; 0x02
	build[3] = verMinor;
     1b8:	80 e3       	ldi	r24, 0x30	; 48
     1ba:	83 83       	std	Z+3, r24	; 0x03
	build[4] = '.';
     1bc:	24 83       	std	Z+4, r18	; 0x04
	build[5] = ' ';
     1be:	95 83       	std	Z+5, r25	; 0x05
	
	/*
	*	Fehlerkorrekturen
	*/
	build[6] = ( ( FEHLERKORREKTUR / 10000 )	% 10 )	+ '0';
     1c0:	86 83       	std	Z+6, r24	; 0x06
	build[7] = ( ( FEHLERKORREKTUR / 1000 )		% 10 )	+ '0';
     1c2:	87 83       	std	Z+7, r24	; 0x07
	build[8] = ( ( FEHLERKORREKTUR / 100 )		% 10 )	+ '0';
     1c4:	80 87       	std	Z+8, r24	; 0x08
	build[9] = ( ( FEHLERKORREKTUR / 10 )		% 10 )	+ '0';
     1c6:	81 87       	std	Z+9, r24	; 0x09
	build[10] = (   FEHLERKORREKTUR % 10 )				+ '0';
     1c8:	82 87       	std	Z+10, r24	; 0x0a
	build[11] = '.';
     1ca:	23 87       	std	Z+11, r18	; 0x0b
	build[12] = ' ';
     1cc:	94 87       	std	Z+12, r25	; 0x0c
	
	/*
	*	time.: hour|min
	*/
	build[13] = __TIME__[0];
     1ce:	85 87       	std	Z+13, r24	; 0x0d
	build[14] = __TIME__[1];
     1d0:	36 e3       	ldi	r19, 0x36	; 54
     1d2:	36 87       	std	Z+14, r19	; 0x0e
	build[15] = __TIME__[3];
     1d4:	82 e3       	ldi	r24, 0x32	; 50
     1d6:	87 87       	std	Z+15, r24	; 0x0f
	build[16] = __TIME__[4];
     1d8:	80 8b       	std	Z+16, r24	; 0x10
	
	build[17] = '.';
     1da:	21 8b       	std	Z+17, r18	; 0x11
	build[18] = ' ';
     1dc:	92 8b       	std	Z+18, r25	; 0x12
	
	/*
	*	day
	*/
	build[19] = ((__DATE__[4] >= '0') ? (__DATE__[4]) : '0');
     1de:	43 8b       	std	Z+19, r20	; 0x13
	build[20] = (__DATE__[ 5]);
     1e0:	84 8b       	std	Z+20, r24	; 0x14
	
	if(__DATE__[0] == 'M' && __DATE__[1] == 'a' && __DATE__[2] == 'y')
	build[21] = '5'; // Mai
	
	if(__DATE__[0] == 'J' && __DATE__[1] == 'u' && __DATE__[2] == 'n')
	build[21] = '6'; // Juni
     1e2:	35 8b       	std	Z+21, r19	; 0x15
	if(__DATE__[0] == 'D'){
		build[21] = '1';
		build[22] = '2'; // Dezember
	}

	build[23] = '\0';
     1e4:	17 8a       	std	Z+23, r1	; 0x17
	
	return build;
}
     1e6:	cf 01       	movw	r24, r30
     1e8:	08 95       	ret

000001ea <selectFont>:

static char str[11] = "";

void selectFont( char **fnt )
{
	disp.fnt = (char*)fnt;
     1ea:	90 93 7f 00 	sts	0x007F, r25	; 0x80007f <disp+0x6>
     1ee:	80 93 7e 00 	sts	0x007E, r24	; 0x80007e <disp+0x5>
     1f2:	08 95       	ret

000001f4 <getCharMapIndex>:
}

uint8_t getCharMapIndex( char ch )
{
     1f4:	28 2f       	mov	r18, r24
	uint8_t i = 0;	
	while( ch != *(disp.fnt + ( ( i * 2 ) ) ) && *(disp.fnt + ( ( i * 2 ) ) ) != '\0' )
     1f6:	a0 91 7e 00 	lds	r26, 0x007E	; 0x80007e <disp+0x5>
     1fa:	b0 91 7f 00 	lds	r27, 0x007F	; 0x80007f <disp+0x6>
     1fe:	8c 91       	ld	r24, X
     200:	28 17       	cp	r18, r24
     202:	81 f0       	breq	.+32     	; 0x224 <getCharMapIndex+0x30>
     204:	88 23       	and	r24, r24
     206:	81 f0       	breq	.+32     	; 0x228 <getCharMapIndex+0x34>
     208:	80 e0       	ldi	r24, 0x00	; 0
	{
		i++;
     20a:	8f 5f       	subi	r24, 0xFF	; 255
}

uint8_t getCharMapIndex( char ch )
{
	uint8_t i = 0;	
	while( ch != *(disp.fnt + ( ( i * 2 ) ) ) && *(disp.fnt + ( ( i * 2 ) ) ) != '\0' )
     20c:	e8 2f       	mov	r30, r24
     20e:	f0 e0       	ldi	r31, 0x00	; 0
     210:	ee 0f       	add	r30, r30
     212:	ff 1f       	adc	r31, r31
     214:	ea 0f       	add	r30, r26
     216:	fb 1f       	adc	r31, r27
     218:	90 81       	ld	r25, Z
     21a:	92 17       	cp	r25, r18
     21c:	31 f0       	breq	.+12     	; 0x22a <getCharMapIndex+0x36>
     21e:	91 11       	cpse	r25, r1
     220:	f4 cf       	rjmp	.-24     	; 0x20a <getCharMapIndex+0x16>
     222:	08 95       	ret
	disp.fnt = (char*)fnt;
}

uint8_t getCharMapIndex( char ch )
{
	uint8_t i = 0;	
     224:	80 e0       	ldi	r24, 0x00	; 0
     226:	08 95       	ret
     228:	80 e0       	ldi	r24, 0x00	; 0
	while( ch != *(disp.fnt + ( ( i * 2 ) ) ) && *(disp.fnt + ( ( i * 2 ) ) ) != '\0' )
	{
		i++;
	}
	return i;
}
     22a:	08 95       	ret

0000022c <timeBcdToStr>:

char *timeBcdToStr( uint8_t hh , uint8_t mm , uint8_t ss )
{
	if ( hh == DISP_SPACE_CHAR )
     22c:	8b 37       	cpi	r24, 0x7B	; 123
     22e:	31 f4       	brne	.+12     	; 0x23c <timeBcdToStr+0x10>
	{
		str[0] = ' ';
     230:	ef e6       	ldi	r30, 0x6F	; 111
     232:	f1 e0       	ldi	r31, 0x01	; 1
     234:	80 e2       	ldi	r24, 0x20	; 32
     236:	80 83       	st	Z, r24
		str[1] = ' ';
     238:	81 83       	std	Z+1, r24	; 0x01
     23a:	0a c0       	rjmp	.+20     	; 0x250 <timeBcdToStr+0x24>
	}
	else
	{
		str[0] = ( ( hh & 0xF0 ) >> 4 ) + '0';
     23c:	ef e6       	ldi	r30, 0x6F	; 111
     23e:	f1 e0       	ldi	r31, 0x01	; 1
     240:	98 2f       	mov	r25, r24
     242:	92 95       	swap	r25
     244:	9f 70       	andi	r25, 0x0F	; 15
     246:	90 5d       	subi	r25, 0xD0	; 208
     248:	90 83       	st	Z, r25
		str[1] = ( hh & 0x0F ) + '0';
     24a:	8f 70       	andi	r24, 0x0F	; 15
     24c:	80 5d       	subi	r24, 0xD0	; 208
     24e:	81 83       	std	Z+1, r24	; 0x01
	}
	
	str[2] = '.';
     250:	ef e6       	ldi	r30, 0x6F	; 111
     252:	f1 e0       	ldi	r31, 0x01	; 1
     254:	8e e2       	ldi	r24, 0x2E	; 46
     256:	82 83       	std	Z+2, r24	; 0x02
	str[3] = ' ';
     258:	80 e2       	ldi	r24, 0x20	; 32
     25a:	83 83       	std	Z+3, r24	; 0x03
	
	if ( mm == DISP_SPACE_CHAR )
     25c:	6b 37       	cpi	r22, 0x7B	; 123
     25e:	19 f4       	brne	.+6      	; 0x266 <timeBcdToStr+0x3a>
	{
		str[4] = ' ';
     260:	84 83       	std	Z+4, r24	; 0x04
		str[5] = ' ';		
     262:	85 83       	std	Z+5, r24	; 0x05
     264:	0a c0       	rjmp	.+20     	; 0x27a <timeBcdToStr+0x4e>
	}
	else
	{
		str[4] = ( ( mm & 0xF0 ) >> 4 ) + '0';
     266:	ef e6       	ldi	r30, 0x6F	; 111
     268:	f1 e0       	ldi	r31, 0x01	; 1
     26a:	86 2f       	mov	r24, r22
     26c:	82 95       	swap	r24
     26e:	8f 70       	andi	r24, 0x0F	; 15
     270:	80 5d       	subi	r24, 0xD0	; 208
     272:	84 83       	std	Z+4, r24	; 0x04
		str[5] = ( mm & 0x0F ) + '0';		
     274:	6f 70       	andi	r22, 0x0F	; 15
     276:	60 5d       	subi	r22, 0xD0	; 208
     278:	65 83       	std	Z+5, r22	; 0x05
	}
	
	str[6] = '.';
     27a:	ef e6       	ldi	r30, 0x6F	; 111
     27c:	f1 e0       	ldi	r31, 0x01	; 1
     27e:	8e e2       	ldi	r24, 0x2E	; 46
     280:	86 83       	std	Z+6, r24	; 0x06
	str[7] = ' ';
     282:	80 e2       	ldi	r24, 0x20	; 32
     284:	87 83       	std	Z+7, r24	; 0x07
	
	if ( ss == DISP_SPACE_CHAR )
     286:	4b 37       	cpi	r20, 0x7B	; 123
     288:	19 f4       	brne	.+6      	; 0x290 <timeBcdToStr+0x64>
	{
		str[8] = ' ';
     28a:	80 87       	std	Z+8, r24	; 0x08
		str[9] = ' ';
     28c:	81 87       	std	Z+9, r24	; 0x09
     28e:	0a c0       	rjmp	.+20     	; 0x2a4 <timeBcdToStr+0x78>
	}
	else
	{
		str[8] = ( ( ss & 0xF0 ) >> 4 ) + '0';
     290:	ef e6       	ldi	r30, 0x6F	; 111
     292:	f1 e0       	ldi	r31, 0x01	; 1
     294:	84 2f       	mov	r24, r20
     296:	82 95       	swap	r24
     298:	8f 70       	andi	r24, 0x0F	; 15
     29a:	80 5d       	subi	r24, 0xD0	; 208
     29c:	80 87       	std	Z+8, r24	; 0x08
		str[9] = ( ss & 0x0F ) + '0';
     29e:	4f 70       	andi	r20, 0x0F	; 15
     2a0:	40 5d       	subi	r20, 0xD0	; 208
     2a2:	41 87       	std	Z+9, r20	; 0x09
	}	
	
	str[10] = '\0';
     2a4:	10 92 79 01 	sts	0x0179, r1	; 0x800179 <str+0xa>
	
	return str;
}
     2a8:	8f e6       	ldi	r24, 0x6F	; 111
     2aa:	91 e0       	ldi	r25, 0x01	; 1
     2ac:	08 95       	ret

000002ae <timeDecToRam>:

void timeDecToRam( uint8_t hh , uint8_t mm )
{
	if ( hh == DISP_SPACE_CHAR )
     2ae:	8b 37       	cpi	r24, 0x7B	; 123
     2b0:	31 f4       	brne	.+12     	; 0x2be <timeDecToRam+0x10>
	{
		disp.dig[0] = ' ';
     2b2:	e9 e7       	ldi	r30, 0x79	; 121
     2b4:	f0 e0       	ldi	r31, 0x00	; 0
     2b6:	80 e2       	ldi	r24, 0x20	; 32
     2b8:	80 83       	st	Z, r24
		disp.dig[1] = ' ';
     2ba:	81 83       	std	Z+1, r24	; 0x01
     2bc:	14 c0       	rjmp	.+40     	; 0x2e6 <timeDecToRam+0x38>
	}
	else
	{
		disp.dig[0] = ( hh / 10 ) + '0';
     2be:	e9 e7       	ldi	r30, 0x79	; 121
     2c0:	f0 e0       	ldi	r31, 0x00	; 0
     2c2:	9d ec       	ldi	r25, 0xCD	; 205
     2c4:	89 9f       	mul	r24, r25
     2c6:	91 2d       	mov	r25, r1
     2c8:	11 24       	eor	r1, r1
     2ca:	96 95       	lsr	r25
     2cc:	96 95       	lsr	r25
     2ce:	96 95       	lsr	r25
     2d0:	20 e3       	ldi	r18, 0x30	; 48
     2d2:	29 0f       	add	r18, r25
     2d4:	20 83       	st	Z, r18
		disp.dig[1] = ( hh % 10 ) + '0';
     2d6:	99 0f       	add	r25, r25
     2d8:	29 2f       	mov	r18, r25
     2da:	22 0f       	add	r18, r18
     2dc:	22 0f       	add	r18, r18
     2de:	92 0f       	add	r25, r18
     2e0:	89 1b       	sub	r24, r25
     2e2:	80 5d       	subi	r24, 0xD0	; 208
     2e4:	81 83       	std	Z+1, r24	; 0x01
	}

	if ( mm == DISP_SPACE_CHAR )
     2e6:	6b 37       	cpi	r22, 0x7B	; 123
     2e8:	31 f4       	brne	.+12     	; 0x2f6 <timeDecToRam+0x48>
	{
		disp.dig[2] = ' ';
     2ea:	e9 e7       	ldi	r30, 0x79	; 121
     2ec:	f0 e0       	ldi	r31, 0x00	; 0
     2ee:	80 e2       	ldi	r24, 0x20	; 32
     2f0:	82 83       	std	Z+2, r24	; 0x02
		disp.dig[3] = ' ';
     2f2:	83 83       	std	Z+3, r24	; 0x03
     2f4:	08 95       	ret
	}
	else
	{
		disp.dig[2] = ( mm / 10 ) + '0';
     2f6:	e9 e7       	ldi	r30, 0x79	; 121
     2f8:	f0 e0       	ldi	r31, 0x00	; 0
     2fa:	8d ec       	ldi	r24, 0xCD	; 205
     2fc:	68 9f       	mul	r22, r24
     2fe:	81 2d       	mov	r24, r1
     300:	11 24       	eor	r1, r1
     302:	86 95       	lsr	r24
     304:	86 95       	lsr	r24
     306:	86 95       	lsr	r24
     308:	90 e3       	ldi	r25, 0x30	; 48
     30a:	98 0f       	add	r25, r24
     30c:	92 83       	std	Z+2, r25	; 0x02
		disp.dig[3] = ( mm % 10 ) + '0';
     30e:	88 0f       	add	r24, r24
     310:	98 2f       	mov	r25, r24
     312:	99 0f       	add	r25, r25
     314:	99 0f       	add	r25, r25
     316:	89 0f       	add	r24, r25
     318:	68 1b       	sub	r22, r24
     31a:	60 5d       	subi	r22, 0xD0	; 208
     31c:	63 83       	std	Z+3, r22	; 0x03
     31e:	08 95       	ret

00000320 <tempToStr>:
{
	int16_t result		=0;
	uint8_t sign		=0;
		
	result = tempIn;
	if (result<0)
     320:	99 23       	and	r25, r25
     322:	14 f5       	brge	.+68     	; 0x368 <tempToStr+0x48>
	{
		result = result*-1;
     324:	91 95       	neg	r25
     326:	81 95       	neg	r24
     328:	91 09       	sbc	r25, r1
		sign = 0x5A;
	}
	
	str[0] = ' ';
     32a:	20 e2       	ldi	r18, 0x20	; 32
     32c:	20 93 6f 01 	sts	0x016F, r18	; 0x80016f <str>
	
	switch( sense )
     330:	66 23       	and	r22, r22
     332:	19 f0       	breq	.+6      	; 0x33a <tempToStr+0x1a>
     334:	61 30       	cpi	r22, 0x01	; 1
     336:	91 f4       	brne	.+36     	; 0x35c <tempToStr+0x3c>
     338:	04 c0       	rjmp	.+8      	; 0x342 <tempToStr+0x22>
	{
		case 0:	
		{
			str[0] = '`';
     33a:	20 e6       	ldi	r18, 0x60	; 96
     33c:	20 93 6f 01 	sts	0x016F, r18	; 0x80016f <str>
		}break;
     340:	1a c0       	rjmp	.+52     	; 0x376 <tempToStr+0x56>
		
	result = tempIn;
	if (result<0)
	{
		result = result*-1;
		sign = 0x5A;
     342:	2a e5       	ldi	r18, 0x5A	; 90
     344:	01 c0       	rjmp	.+2      	; 0x348 <tempToStr+0x28>
}

char *tempToStr( int16_t tempIn , uint8_t sense )
{
	int16_t result		=0;
	uint8_t sign		=0;
     346:	20 e0       	ldi	r18, 0x00	; 0
			str[0] = '`';
		}break;
		
		case 1:	
		{
			if ( sign == 0x5A )
     348:	2a 35       	cpi	r18, 0x5A	; 90
     34a:	21 f4       	brne	.+8      	; 0x354 <tempToStr+0x34>
			{
				str[0]	= 16;
     34c:	20 e1       	ldi	r18, 0x10	; 16
     34e:	20 93 6f 01 	sts	0x016F, r18	; 0x80016f <str>
     352:	11 c0       	rjmp	.+34     	; 0x376 <tempToStr+0x56>
			}
			else
			{
				str[0]	= '´';
     354:	24 eb       	ldi	r18, 0xB4	; 180
     356:	20 93 6f 01 	sts	0x016F, r18	; 0x80016f <str>
     35a:	0d c0       	rjmp	.+26     	; 0x376 <tempToStr+0x56>
			}
		}break;
		
		default:   
		{
			if ( sign == 0x5A && sense == 0xFF )
     35c:	6f 3f       	cpi	r22, 0xFF	; 255
     35e:	59 f4       	brne	.+22     	; 0x376 <tempToStr+0x56>
			{
				str[0] = '-';
     360:	2d e2       	ldi	r18, 0x2D	; 45
     362:	20 93 6f 01 	sts	0x016F, r18	; 0x80016f <str>
     366:	07 c0       	rjmp	.+14     	; 0x376 <tempToStr+0x56>
	{
		result = result*-1;
		sign = 0x5A;
	}
	
	str[0] = ' ';
     368:	20 e2       	ldi	r18, 0x20	; 32
     36a:	20 93 6f 01 	sts	0x016F, r18	; 0x80016f <str>
	
	switch( sense )
     36e:	66 23       	and	r22, r22
     370:	21 f3       	breq	.-56     	; 0x33a <tempToStr+0x1a>
     372:	61 30       	cpi	r22, 0x01	; 1
     374:	41 f3       	breq	.-48     	; 0x346 <tempToStr+0x26>
			}
			
		}break;
	}

	str[1] = (result/10)  + '0';
     376:	ef e6       	ldi	r30, 0x6F	; 111
     378:	f1 e0       	ldi	r31, 0x01	; 1
     37a:	6a e0       	ldi	r22, 0x0A	; 10
     37c:	70 e0       	ldi	r23, 0x00	; 0
     37e:	0e 94 eb 0a 	call	0x15d6	; 0x15d6 <__divmodhi4>
     382:	60 5d       	subi	r22, 0xD0	; 208
     384:	61 83       	std	Z+1, r22	; 0x01
	str[2] = (result%10)  + '0';
     386:	80 5d       	subi	r24, 0xD0	; 208
     388:	82 83       	std	Z+2, r24	; 0x02
	str[3] = '°';
     38a:	80 eb       	ldi	r24, 0xB0	; 176
     38c:	83 83       	std	Z+3, r24	; 0x03
	str[4] = 'C';
     38e:	83 e4       	ldi	r24, 0x43	; 67
     390:	84 83       	std	Z+4, r24	; 0x04
	str[5] = '\0';
     392:	15 82       	std	Z+5, r1	; 0x05
	
	return str;
}
     394:	cf 01       	movw	r24, r30
     396:	08 95       	ret

00000398 <chToRam>:

void chToRam( char ch , enum mcp23017_gpb dig )
{	
     398:	0f 93       	push	r16
     39a:	1f 93       	push	r17
     39c:	cf 93       	push	r28
     39e:	c6 2f       	mov	r28, r22
	char ret = ~( * ( ( disp.fnt ) + ( ( 2 * getCharMapIndex( ch ) ) + 1 ) ) );
     3a0:	00 91 7e 00 	lds	r16, 0x007E	; 0x80007e <disp+0x5>
     3a4:	10 91 7f 00 	lds	r17, 0x007F	; 0x80007f <disp+0x6>
     3a8:	0e 94 fa 00 	call	0x1f4	; 0x1f4 <getCharMapIndex>
     3ac:	e8 2f       	mov	r30, r24
     3ae:	f0 e0       	ldi	r31, 0x00	; 0
     3b0:	ee 0f       	add	r30, r30
     3b2:	ff 1f       	adc	r31, r31
     3b4:	e0 0f       	add	r30, r16
     3b6:	f1 1f       	adc	r31, r17
	
	mcp23017_set_gpa( ret );
     3b8:	81 81       	ldd	r24, Z+1	; 0x01
     3ba:	80 95       	com	r24
     3bc:	0e 94 57 02 	call	0x4ae	; 0x4ae <mcp23017_set_gpa>
	mcp23017_set_gpb( (~(dig)) & ~(REFERENCE_ENABLE) ); // REFERENCE_ENABLE nicht mit setzen
     3c0:	8c 2f       	mov	r24, r28
     3c2:	80 95       	com	r24
     3c4:	8f 77       	andi	r24, 0x7F	; 127
     3c6:	0e 94 66 02 	call	0x4cc	; 0x4cc <mcp23017_set_gpb>
}
     3ca:	cf 91       	pop	r28
     3cc:	1f 91       	pop	r17
     3ce:	0f 91       	pop	r16
     3d0:	08 95       	ret

000003d2 <refEnable>:

void refEnable( uint8_t state )
{
	switch( state )
     3d2:	88 23       	and	r24, r24
     3d4:	19 f0       	breq	.+6      	; 0x3dc <refEnable+0xa>
     3d6:	81 30       	cpi	r24, 0x01	; 1
     3d8:	29 f0       	breq	.+10     	; 0x3e4 <refEnable+0x12>
     3da:	08 95       	ret
	{
		case 0:
		{
			mcp23017_set_gpb( 0xFF & ~REFERENCE_ENABLE );
     3dc:	8f e7       	ldi	r24, 0x7F	; 127
     3de:	0e 94 66 02 	call	0x4cc	; 0x4cc <mcp23017_set_gpb>
		}break;
     3e2:	08 95       	ret
		
		case 1:
		{
			mcp23017_set_gpb( REFERENCE_ENABLE );
     3e4:	80 e8       	ldi	r24, 0x80	; 128
     3e6:	0e 94 66 02 	call	0x4cc	; 0x4cc <mcp23017_set_gpb>
     3ea:	08 95       	ret

000003ec <clearDigits>:
void clearDigits( void )
{
	
	for ( uint8_t x = 0 ; x < 4 ; x++ )
	{
		disp.dig[x] = ' ';
     3ec:	e9 e7       	ldi	r30, 0x79	; 121
     3ee:	f0 e0       	ldi	r31, 0x00	; 0
     3f0:	80 e2       	ldi	r24, 0x20	; 32
     3f2:	80 83       	st	Z, r24
     3f4:	81 83       	std	Z+1, r24	; 0x01
     3f6:	82 83       	std	Z+2, r24	; 0x02
     3f8:	83 83       	std	Z+3, r24	; 0x03
     3fa:	08 95       	ret

000003fc <muxDigits>:

void muxDigits( void )
{
	static uint8_t mux = 0;
	
	if ( mux >= 35 )
     3fc:	e0 91 6e 01 	lds	r30, 0x016E	; 0x80016e <__data_end>
     400:	e3 32       	cpi	r30, 0x23	; 35
     402:	18 f0       	brcs	.+6      	; 0x40a <__LOCK_REGION_LENGTH__+0xa>
	{
		mux = 0;
     404:	10 92 6e 01 	sts	0x016E, r1	; 0x80016e <__data_end>
     408:	0d c0       	rjmp	.+26     	; 0x424 <__LOCK_REGION_LENGTH__+0x24>
	}
	else
	{
		mux++;
     40a:	ef 5f       	subi	r30, 0xFF	; 255
     40c:	e0 93 6e 01 	sts	0x016E, r30	; 0x80016e <__data_end>
	}
	
	switch( mux )
     410:	8e 2f       	mov	r24, r30
     412:	90 e0       	ldi	r25, 0x00	; 0
     414:	84 32       	cpi	r24, 0x24	; 36
     416:	91 05       	cpc	r25, r1
     418:	80 f5       	brcc	.+96     	; 0x47a <__LOCK_REGION_LENGTH__+0x7a>
     41a:	fc 01       	movw	r30, r24
     41c:	e6 5d       	subi	r30, 0xD6	; 214
     41e:	ff 4f       	sbci	r31, 0xFF	; 255
     420:	0c 94 ff 0a 	jmp	0x15fe	; 0x15fe <__tablejump2__>
	{
		case 0:
		{
			chToRam( disp.dig[0] , DRIVE_dig_1 );
     424:	60 e4       	ldi	r22, 0x40	; 64
     426:	80 91 79 00 	lds	r24, 0x0079	; 0x800079 <disp>
     42a:	0e 94 cc 01 	call	0x398	; 0x398 <chToRam>
		}break;
     42e:	08 95       	ret
		case 5:
		{
			chToRam( ' ' , ~(DRIVE_dig_1 | DRIVE_dig_2 | DRIVE_dig_3 | DRIVE_dig_4 ) );
     430:	67 e8       	ldi	r22, 0x87	; 135
     432:	80 e2       	ldi	r24, 0x20	; 32
     434:	0e 94 cc 01 	call	0x398	; 0x398 <chToRam>
		}break;
     438:	08 95       	ret
		case 10:
		{
			chToRam( disp.dig[1] , DRIVE_dig_2 );
     43a:	60 e2       	ldi	r22, 0x20	; 32
     43c:	80 91 7a 00 	lds	r24, 0x007A	; 0x80007a <disp+0x1>
     440:	0e 94 cc 01 	call	0x398	; 0x398 <chToRam>
		}break;
     444:	08 95       	ret
		case 15:
		{
			chToRam( ' ', ~( DRIVE_dig_1 | DRIVE_dig_2 | DRIVE_dig_3 | DRIVE_dig_4 ) );
     446:	67 e8       	ldi	r22, 0x87	; 135
     448:	80 e2       	ldi	r24, 0x20	; 32
     44a:	0e 94 cc 01 	call	0x398	; 0x398 <chToRam>
		}break;
     44e:	08 95       	ret
		case 20:
		{
			chToRam( disp.dig[2] , DRIVE_dig_3 );
     450:	60 e1       	ldi	r22, 0x10	; 16
     452:	80 91 7b 00 	lds	r24, 0x007B	; 0x80007b <disp+0x2>
     456:	0e 94 cc 01 	call	0x398	; 0x398 <chToRam>
		}break;
     45a:	08 95       	ret
		case 25:
		{
			chToRam( ' ' , ~( DRIVE_dig_1 | DRIVE_dig_2 | DRIVE_dig_3 | DRIVE_dig_4 ) );
     45c:	67 e8       	ldi	r22, 0x87	; 135
     45e:	80 e2       	ldi	r24, 0x20	; 32
     460:	0e 94 cc 01 	call	0x398	; 0x398 <chToRam>
		}break;
     464:	08 95       	ret
		case 30:
		{
			chToRam(disp.dig[3],DRIVE_dig_4);
     466:	68 e0       	ldi	r22, 0x08	; 8
     468:	80 91 7c 00 	lds	r24, 0x007C	; 0x80007c <disp+0x3>
     46c:	0e 94 cc 01 	call	0x398	; 0x398 <chToRam>
		}break;
     470:	08 95       	ret
		case 35:
		{
			chToRam( ' ' , ~( DRIVE_dig_1 | DRIVE_dig_2 | DRIVE_dig_3 | DRIVE_dig_4 ) );
     472:	67 e8       	ldi	r22, 0x87	; 135
     474:	80 e2       	ldi	r24, 0x20	; 32
     476:	0e 94 cc 01 	call	0x398	; 0x398 <chToRam>
     47a:	08 95       	ret

0000047c <hardware_init>:
#include "hard_def.h"

void hardware_init(void)
{
	/* gpios as output */
	DDR(GLCD_PORT) 	 			|= ((1<<GLCD_CS1_bp) | (1<<GLCD_RES_bp) | (1<<GLCD_A0_bp) | (1<<GLCD_SCL_bp) | (1<<GLCD_DATA_bp));
     47c:	8a b3       	in	r24, 0x1a	; 26
     47e:	88 6f       	ori	r24, 0xF8	; 248
     480:	8a bb       	out	0x1a, r24	; 26
	DDR(GLCD_LED_PORT) 			|= ((1<<GLCD_LED_BLUE_bp) | (1<<GLCD_LED_GREEN_bp) | (1<<GLCD_LED_RED_bp));
     482:	84 b3       	in	r24, 0x14	; 20
     484:	80 6e       	ori	r24, 0xE0	; 224
     486:	84 bb       	out	0x14, r24	; 20
	DDR(LED_HEARTBEAT_PORT) 	|= ( 1<<LED_HEARTBEAT_bp);
     488:	bf 9a       	sbi	0x17, 7	; 23
	DDR(VIBRATION_MOTOR_PORT)	|= ( 1<<VIBRATION_MOTOR_bp);
     48a:	be 9a       	sbi	0x17, 6	; 23
	DDR(SOUND_PORT)				|= ( 1<<SOUND_bp);
     48c:	a4 9a       	sbi	0x14, 4	; 20
	DDR(RELAIS_PORT1_PORT)		|= ((RELAIS_1_PORT1) | (RELAIS_2_PORT1) | (RELAIS_3_PORT1) | (RELAIS_4_PORT1) | (RELAIS_5_PORT1) | (RELAIS_6_PORT1));
     48e:	81 b3       	in	r24, 0x11	; 17
     490:	8c 6f       	ori	r24, 0xFC	; 252
     492:	81 bb       	out	0x11, r24	; 17
	DDR(RELAIS_PORT2_PORT)		|= ((RELAIS_7_PORT2) | (RELAIS_8_PORT2));
     494:	84 b3       	in	r24, 0x14	; 20
     496:	8c 60       	ori	r24, 0x0C	; 12
     498:	84 bb       	out	0x14, r24	; 20

	SOUND_DDR |= (1<<SOUND_bp);
     49a:	a4 9a       	sbi	0x14, 4	; 20
	
	/* gpios as input */
	DDR(SWITCH_PORT)			&= ~((1<<SWITCH_ENTER_bp) | (1<<SWITCH_UP_bp) | (1<<SWITCH_DOWN_bp) | (1<<SWITCH_RETURN_bp));
     49c:	87 b3       	in	r24, 0x17	; 23
     49e:	80 7f       	andi	r24, 0xF0	; 240
     4a0:	87 bb       	out	0x17, r24	; 23
	DDR(MEASURE_VCC_PORT) 		&= ~( 1<<MEASURE_VCC_bp);
     4a2:	d0 98       	cbi	0x1a, 0	; 26
	DDR(ENC_SWITCH_PORT)  		&= ~( 1<<ENC_SWITCH_bp);
     4a4:	ac 98       	cbi	0x15, 4	; 21
	DDR(ENC_PORT)		 		&= ~((1<<ENC_A) | (1<<ENC_B));
     4a6:	8a b3       	in	r24, 0x1a	; 26
     4a8:	89 7f       	andi	r24, 0xF9	; 249
     4aa:	8a bb       	out	0x1a, r24	; 26
     4ac:	08 95       	ret

000004ae <mcp23017_set_gpa>:
	mcp23017_set_gpb(0);
	
}

void mcp23017_set_gpa(uint8_t cmd)
{	
     4ae:	cf 93       	push	r28
     4b0:	c8 2f       	mov	r28, r24
	i2c_start_wait(MCP23017_ADDR + I2C_WRITE);
     4b2:	80 e4       	ldi	r24, 0x40	; 64
     4b4:	0e 94 88 00 	call	0x110	; 0x110 <i2c_start_wait>
	i2c_write(GPIOA);
     4b8:	82 e1       	ldi	r24, 0x12	; 18
     4ba:	0e 94 9a 00 	call	0x134	; 0x134 <i2c_write>
	i2c_write(cmd);
     4be:	8c 2f       	mov	r24, r28
     4c0:	0e 94 9a 00 	call	0x134	; 0x134 <i2c_write>
	i2c_stop();
     4c4:	0e 94 92 00 	call	0x124	; 0x124 <i2c_stop>
};
     4c8:	cf 91       	pop	r28
     4ca:	08 95       	ret

000004cc <mcp23017_set_gpb>:

void mcp23017_set_gpb(uint8_t cmd)
{	
     4cc:	cf 93       	push	r28
     4ce:	c8 2f       	mov	r28, r24
	i2c_start_wait(MCP23017_ADDR + I2C_WRITE);
     4d0:	80 e4       	ldi	r24, 0x40	; 64
     4d2:	0e 94 88 00 	call	0x110	; 0x110 <i2c_start_wait>
	i2c_write(GPIOB);
     4d6:	83 e1       	ldi	r24, 0x13	; 19
     4d8:	0e 94 9a 00 	call	0x134	; 0x134 <i2c_write>
	i2c_write(cmd);
     4dc:	8c 2f       	mov	r24, r28
     4de:	0e 94 9a 00 	call	0x134	; 0x134 <i2c_write>
	i2c_stop();
     4e2:	0e 94 92 00 	call	0x124	; 0x124 <i2c_stop>
};
     4e6:	cf 91       	pop	r28
     4e8:	08 95       	ret

000004ea <mcp23017_init>:

static uint8_t cmd = 0;

void mcp23017_init(void)
{
	i2c_start_wait(MCP23017_ADDR + I2C_WRITE);
     4ea:	80 e4       	ldi	r24, 0x40	; 64
     4ec:	0e 94 88 00 	call	0x110	; 0x110 <i2c_start_wait>
	
	cmd = GPIOS_COMP_AS_OUT; 
     4f0:	10 92 7a 01 	sts	0x017A, r1	; 0x80017a <cmd>
	/* set gpios @ outputs */
	i2c_write(IODIRA);
     4f4:	80 e0       	ldi	r24, 0x00	; 0
     4f6:	0e 94 9a 00 	call	0x134	; 0x134 <i2c_write>
	i2c_write(cmd);
     4fa:	80 91 7a 01 	lds	r24, 0x017A	; 0x80017a <cmd>
     4fe:	0e 94 9a 00 	call	0x134	; 0x134 <i2c_write>
	i2c_write(IODIRB);
     502:	81 e0       	ldi	r24, 0x01	; 1
     504:	0e 94 9a 00 	call	0x134	; 0x134 <i2c_write>
	i2c_write(cmd);
     508:	80 91 7a 01 	lds	r24, 0x017A	; 0x80017a <cmd>
     50c:	0e 94 9a 00 	call	0x134	; 0x134 <i2c_write>
	i2c_stop();
     510:	0e 94 92 00 	call	0x124	; 0x124 <i2c_stop>
	
	mcp23017_set_gpa(0);
     514:	80 e0       	ldi	r24, 0x00	; 0
     516:	0e 94 57 02 	call	0x4ae	; 0x4ae <mcp23017_set_gpa>
	mcp23017_set_gpb(0);
     51a:	80 e0       	ldi	r24, 0x00	; 0
     51c:	0e 94 66 02 	call	0x4cc	; 0x4cc <mcp23017_set_gpb>
     520:	08 95       	ret

00000522 <bcdToDec>:
  
void rtcSetClkOut(uint8_t frequency)
{    
	buff[0] = clkout_frequency_register;
	buff[1] = frequency;
	rx8564Writes( buff , sizeof(buff) );	
     522:	98 2f       	mov	r25, r24
     524:	92 95       	swap	r25
     526:	9f 70       	andi	r25, 0x0F	; 15
     528:	99 0f       	add	r25, r25
     52a:	29 2f       	mov	r18, r25
     52c:	22 0f       	add	r18, r18
     52e:	22 0f       	add	r18, r18
     530:	92 0f       	add	r25, r18
     532:	8f 70       	andi	r24, 0x0F	; 15
     534:	89 0f       	add	r24, r25
     536:	08 95       	ret

00000538 <rx8564Reads>:
     538:	df 92       	push	r13
     53a:	ef 92       	push	r14
     53c:	ff 92       	push	r15
     53e:	0f 93       	push	r16
     540:	1f 93       	push	r17
     542:	cf 93       	push	r28
     544:	df 93       	push	r29
     546:	7c 01       	movw	r14, r24
     548:	16 2f       	mov	r17, r22
     54a:	82 ea       	ldi	r24, 0xA2	; 162
     54c:	0e 94 88 00 	call	0x110	; 0x110 <i2c_start_wait>
     550:	f7 01       	movw	r30, r14
     552:	80 81       	ld	r24, Z
     554:	0e 94 9a 00 	call	0x134	; 0x134 <i2c_write>
     558:	83 ea       	ldi	r24, 0xA3	; 163
     55a:	0e 94 7e 00 	call	0xfc	; 0xfc <i2c_rep_start>
     55e:	d8 2e       	mov	r13, r24
     560:	81 11       	cpse	r24, r1
     562:	05 c0       	rjmp	.+10     	; 0x56e <rx8564Reads+0x36>
     564:	11 23       	and	r17, r17
     566:	f1 f0       	breq	.+60     	; 0x5a4 <rx8564Reads+0x6c>
     568:	11 30       	cpi	r17, 0x01	; 1
     56a:	69 f4       	brne	.+26     	; 0x586 <rx8564Reads+0x4e>
     56c:	05 c0       	rjmp	.+10     	; 0x578 <rx8564Reads+0x40>
     56e:	0e 94 92 00 	call	0x124	; 0x124 <i2c_stop>
     572:	dd 24       	eor	r13, r13
     574:	d3 94       	inc	r13
     576:	1c c0       	rjmp	.+56     	; 0x5b0 <rx8564Reads+0x78>
     578:	0e 94 b6 00 	call	0x16c	; 0x16c <i2c_readNak>
     57c:	f7 01       	movw	r30, r14
     57e:	80 83       	st	Z, r24
     580:	0e 94 92 00 	call	0x124	; 0x124 <i2c_stop>
     584:	15 c0       	rjmp	.+42     	; 0x5b0 <rx8564Reads+0x78>
     586:	e7 01       	movw	r28, r14
     588:	11 50       	subi	r17, 0x01	; 1
     58a:	61 2f       	mov	r22, r17
     58c:	70 e0       	ldi	r23, 0x00	; 0
     58e:	6f 5f       	subi	r22, 0xFF	; 255
     590:	7f 4f       	sbci	r23, 0xFF	; 255
     592:	e6 0e       	add	r14, r22
     594:	f7 1e       	adc	r15, r23
     596:	87 01       	movw	r16, r14
     598:	0e 94 b8 00 	call	0x170	; 0x170 <i2c_readAck>
     59c:	89 93       	st	Y+, r24
     59e:	c0 17       	cp	r28, r16
     5a0:	d1 07       	cpc	r29, r17
     5a2:	d1 f7       	brne	.-12     	; 0x598 <rx8564Reads+0x60>
     5a4:	0e 94 b6 00 	call	0x16c	; 0x16c <i2c_readNak>
     5a8:	f7 01       	movw	r30, r14
     5aa:	80 83       	st	Z, r24
     5ac:	0e 94 92 00 	call	0x124	; 0x124 <i2c_stop>
     5b0:	8d 2d       	mov	r24, r13
     5b2:	df 91       	pop	r29
     5b4:	cf 91       	pop	r28
     5b6:	1f 91       	pop	r17
     5b8:	0f 91       	pop	r16
     5ba:	ff 90       	pop	r15
     5bc:	ef 90       	pop	r14
     5be:	df 90       	pop	r13
     5c0:	08 95       	ret

000005c2 <rx8564Writes>:
     5c2:	ef 92       	push	r14
     5c4:	ff 92       	push	r15
     5c6:	0f 93       	push	r16
     5c8:	1f 93       	push	r17
     5ca:	cf 93       	push	r28
     5cc:	df 93       	push	r29
     5ce:	7c 01       	movw	r14, r24
     5d0:	16 2f       	mov	r17, r22
     5d2:	82 ea       	ldi	r24, 0xA2	; 162
     5d4:	0e 94 88 00 	call	0x110	; 0x110 <i2c_start_wait>
     5d8:	11 23       	and	r17, r17
     5da:	71 f0       	breq	.+28     	; 0x5f8 <rx8564Writes+0x36>
     5dc:	e7 01       	movw	r28, r14
     5de:	11 50       	subi	r17, 0x01	; 1
     5e0:	01 2f       	mov	r16, r17
     5e2:	10 e0       	ldi	r17, 0x00	; 0
     5e4:	0f 5f       	subi	r16, 0xFF	; 255
     5e6:	1f 4f       	sbci	r17, 0xFF	; 255
     5e8:	0e 0d       	add	r16, r14
     5ea:	1f 1d       	adc	r17, r15
     5ec:	89 91       	ld	r24, Y+
     5ee:	0e 94 9a 00 	call	0x134	; 0x134 <i2c_write>
     5f2:	c0 17       	cp	r28, r16
     5f4:	d1 07       	cpc	r29, r17
     5f6:	d1 f7       	brne	.-12     	; 0x5ec <rx8564Writes+0x2a>
     5f8:	0e 94 92 00 	call	0x124	; 0x124 <i2c_stop>
     5fc:	80 e0       	ldi	r24, 0x00	; 0
     5fe:	df 91       	pop	r29
     600:	cf 91       	pop	r28
     602:	1f 91       	pop	r17
     604:	0f 91       	pop	r16
     606:	ff 90       	pop	r15
     608:	ef 90       	pop	r14
     60a:	08 95       	ret

0000060c <rtcSetTime>:
     60c:	eb e7       	ldi	r30, 0x7B	; 123
     60e:	f1 e0       	ldi	r31, 0x01	; 1
     610:	92 e0       	ldi	r25, 0x02	; 2
     612:	90 83       	st	Z, r25
     614:	9d ec       	ldi	r25, 0xCD	; 205
     616:	49 9f       	mul	r20, r25
     618:	21 2d       	mov	r18, r1
     61a:	11 24       	eor	r1, r1
     61c:	26 95       	lsr	r18
     61e:	26 95       	lsr	r18
     620:	26 95       	lsr	r18
     622:	30 e1       	ldi	r19, 0x10	; 16
     624:	23 9f       	mul	r18, r19
     626:	d0 01       	movw	r26, r0
     628:	11 24       	eor	r1, r1
     62a:	22 0f       	add	r18, r18
     62c:	32 2f       	mov	r19, r18
     62e:	33 0f       	add	r19, r19
     630:	33 0f       	add	r19, r19
     632:	23 0f       	add	r18, r19
     634:	42 1b       	sub	r20, r18
     636:	4a 2b       	or	r20, r26
     638:	41 83       	std	Z+1, r20	; 0x01
     63a:	69 9f       	mul	r22, r25
     63c:	21 2d       	mov	r18, r1
     63e:	11 24       	eor	r1, r1
     640:	26 95       	lsr	r18
     642:	26 95       	lsr	r18
     644:	26 95       	lsr	r18
     646:	30 e1       	ldi	r19, 0x10	; 16
     648:	23 9f       	mul	r18, r19
     64a:	a0 01       	movw	r20, r0
     64c:	11 24       	eor	r1, r1
     64e:	22 0f       	add	r18, r18
     650:	32 2f       	mov	r19, r18
     652:	33 0f       	add	r19, r19
     654:	33 0f       	add	r19, r19
     656:	23 0f       	add	r18, r19
     658:	62 1b       	sub	r22, r18
     65a:	64 2b       	or	r22, r20
     65c:	62 83       	std	Z+2, r22	; 0x02
     65e:	89 9f       	mul	r24, r25
     660:	91 2d       	mov	r25, r1
     662:	11 24       	eor	r1, r1
     664:	96 95       	lsr	r25
     666:	96 95       	lsr	r25
     668:	96 95       	lsr	r25
     66a:	40 e1       	ldi	r20, 0x10	; 16
     66c:	94 9f       	mul	r25, r20
     66e:	90 01       	movw	r18, r0
     670:	11 24       	eor	r1, r1
     672:	99 0f       	add	r25, r25
     674:	39 2f       	mov	r19, r25
     676:	33 0f       	add	r19, r19
     678:	33 0f       	add	r19, r19
     67a:	93 0f       	add	r25, r19
     67c:	89 1b       	sub	r24, r25
     67e:	82 2b       	or	r24, r18
     680:	83 83       	std	Z+3, r24	; 0x03
     682:	6b e0       	ldi	r22, 0x0B	; 11
     684:	cf 01       	movw	r24, r30
     686:	0e 94 e1 02 	call	0x5c2	; 0x5c2 <rx8564Writes>
     68a:	08 95       	ret

0000068c <rtcGetData>:
}
 
void rtcGetData(rx8564_t *buffer)
{   
     68c:	0f 93       	push	r16
     68e:	1f 93       	push	r17
     690:	cf 93       	push	r28
     692:	df 93       	push	r29
     694:	ec 01       	movw	r28, r24
	buff[0] = seconds_register;
     696:	0b e7       	ldi	r16, 0x7B	; 123
     698:	11 e0       	ldi	r17, 0x01	; 1
     69a:	82 e0       	ldi	r24, 0x02	; 2
     69c:	d8 01       	movw	r26, r16
     69e:	8c 93       	st	X, r24
	rx8564Reads( buff , sizeof(buff) );
     6a0:	6b e0       	ldi	r22, 0x0B	; 11
     6a2:	c8 01       	movw	r24, r16
     6a4:	0e 94 9c 02 	call	0x538	; 0x538 <rx8564Reads>
			
    buffer->second			= buff[0];
     6a8:	d8 01       	movw	r26, r16
     6aa:	ec 91       	ld	r30, X
     6ac:	e8 83       	st	Y, r30
    buffer->minute			= buff[1];  
     6ae:	11 96       	adiw	r26, 0x01	; 1
     6b0:	7c 91       	ld	r23, X
     6b2:	11 97       	sbiw	r26, 0x01	; 1
     6b4:	79 83       	std	Y+1, r23	; 0x01
    buffer->hour			= buff[2];
     6b6:	12 96       	adiw	r26, 0x02	; 2
     6b8:	6c 91       	ld	r22, X
     6ba:	12 97       	sbiw	r26, 0x02	; 2
     6bc:	6a 83       	std	Y+2, r22	; 0x02
    buffer->day				= buff[3];
     6be:	13 96       	adiw	r26, 0x03	; 3
     6c0:	5c 91       	ld	r21, X
     6c2:	13 97       	sbiw	r26, 0x03	; 3
     6c4:	5c 83       	std	Y+4, r21	; 0x04
    buffer->dayName			= buff[4];
     6c6:	14 96       	adiw	r26, 0x04	; 4
     6c8:	3c 91       	ld	r19, X
     6ca:	14 97       	sbiw	r26, 0x04	; 4
     6cc:	3d 83       	std	Y+5, r19	; 0x05
    buffer->month			= buff[5];
     6ce:	15 96       	adiw	r26, 0x05	; 5
     6d0:	4c 91       	ld	r20, X
     6d2:	15 97       	sbiw	r26, 0x05	; 5
     6d4:	4b 83       	std	Y+3, r20	; 0x03
    buffer->year			= buff[6];
     6d6:	16 96       	adiw	r26, 0x06	; 6
     6d8:	8c 91       	ld	r24, X
     6da:	16 97       	sbiw	r26, 0x06	; 6
     6dc:	90 e0       	ldi	r25, 0x00	; 0
     6de:	9f 83       	std	Y+7, r25	; 0x07
     6e0:	8e 83       	std	Y+6, r24	; 0x06
    buffer->alrt_minute		= buff[7];
     6e2:	17 96       	adiw	r26, 0x07	; 7
     6e4:	2c 91       	ld	r18, X
     6e6:	17 97       	sbiw	r26, 0x07	; 7
     6e8:	28 87       	std	Y+8, r18	; 0x08
    buffer->alrt_hour		= buff[8];
     6ea:	18 96       	adiw	r26, 0x08	; 8
     6ec:	9c 91       	ld	r25, X
     6ee:	18 97       	sbiw	r26, 0x08	; 8
     6f0:	99 87       	std	Y+9, r25	; 0x09
    buffer->alrt_day		= buff[9];
     6f2:	19 96       	adiw	r26, 0x09	; 9
     6f4:	8c 91       	ld	r24, X
     6f6:	19 97       	sbiw	r26, 0x09	; 9
     6f8:	8a 87       	std	Y+10, r24	; 0x0a
    buffer->alrt_dayName	= buff[10];
     6fa:	1a 96       	adiw	r26, 0x0a	; 10
     6fc:	fc 91       	ld	r31, X

 
    buffer->second			&= 0x7F;
     6fe:	ef 77       	andi	r30, 0x7F	; 127
     700:	e8 83       	st	Y, r30
    buffer->minute			&= 0x7F;
     702:	7f 77       	andi	r23, 0x7F	; 127
     704:	79 83       	std	Y+1, r23	; 0x01
    buffer->hour			&= 0x3F;
     706:	6f 73       	andi	r22, 0x3F	; 63
     708:	6a 83       	std	Y+2, r22	; 0x02
          
    buffer->day				&= 0x3F;
     70a:	5f 73       	andi	r21, 0x3F	; 63
     70c:	5c 83       	std	Y+4, r21	; 0x04
    buffer->month			&= 0x1F;
     70e:	4f 71       	andi	r20, 0x1F	; 31
     710:	4b 83       	std	Y+3, r20	; 0x03
    buffer->dayName			&= 0x07;
     712:	37 70       	andi	r19, 0x07	; 7
     714:	3d 83       	std	Y+5, r19	; 0x05
     
    buffer->alrt_minute		&= 0x7F;
     716:	2f 77       	andi	r18, 0x7F	; 127
     718:	28 87       	std	Y+8, r18	; 0x08
    buffer->alrt_hour		&= 0x7F;
     71a:	9f 77       	andi	r25, 0x7F	; 127
     71c:	99 87       	std	Y+9, r25	; 0x09
    buffer->alrt_day		&= 0x7F;
     71e:	8f 77       	andi	r24, 0x7F	; 127
     720:	8a 87       	std	Y+10, r24	; 0x0a
    buffer->alrt_dayName	&= 0x7F;
     722:	8f 2f       	mov	r24, r31
     724:	8f 77       	andi	r24, 0x7F	; 127
     726:	8b 87       	std	Y+11, r24	; 0x0b
}
     728:	df 91       	pop	r29
     72a:	cf 91       	pop	r28
     72c:	1f 91       	pop	r17
     72e:	0f 91       	pop	r16
     730:	08 95       	ret

00000732 <sts3x_init>:



void sts3x_init(void)
{
	i2c_start_wait( STS3x_ADDR + I2C_WRITE );
     732:	84 e9       	ldi	r24, 0x94	; 148
     734:	0e 94 88 00 	call	0x110	; 0x110 <i2c_start_wait>
	
	i2c_write( STS3x_1_MPS_MSB );
     738:	81 e2       	ldi	r24, 0x21	; 33
     73a:	0e 94 9a 00 	call	0x134	; 0x134 <i2c_write>
	i2c_write( STS3x_1_MPS_HIG_LSB );
     73e:	80 e3       	ldi	r24, 0x30	; 48
     740:	0e 94 9a 00 	call	0x134	; 0x134 <i2c_write>
 	i2c_write( STS3x_FETCH_DATA_MSB );
     744:	80 ee       	ldi	r24, 0xE0	; 224
     746:	0e 94 9a 00 	call	0x134	; 0x134 <i2c_write>
 	i2c_write( STS3x_FETCH_DATA_LSB );	
     74a:	80 e0       	ldi	r24, 0x00	; 0
     74c:	0e 94 9a 00 	call	0x134	; 0x134 <i2c_write>
	 
	i2c_stop();
     750:	0e 94 92 00 	call	0x124	; 0x124 <i2c_stop>
     754:	08 95       	ret

00000756 <sts3x_calc>:
}

int16_t sts3x_calc(uint16_t temp)
{	
	double stemp=temp;
     756:	bc 01       	movw	r22, r24
     758:	80 e0       	ldi	r24, 0x00	; 0
     75a:	90 e0       	ldi	r25, 0x00	; 0
     75c:	0e 94 f0 09 	call	0x13e0	; 0x13e0 <__floatunsisf>
	stemp *= 175;
     760:	20 e0       	ldi	r18, 0x00	; 0
     762:	30 e0       	ldi	r19, 0x00	; 0
     764:	4f e2       	ldi	r20, 0x2F	; 47
     766:	53 e4       	ldi	r21, 0x43	; 67
     768:	0e 94 7e 0a 	call	0x14fc	; 0x14fc <__mulsf3>
	stemp /= 0xffff;
     76c:	20 e0       	ldi	r18, 0x00	; 0
     76e:	3f ef       	ldi	r19, 0xFF	; 255
     770:	4f e7       	ldi	r20, 0x7F	; 127
     772:	57 e4       	ldi	r21, 0x47	; 71
     774:	0e 94 48 09 	call	0x1290	; 0x1290 <__divsf3>
	stemp = -45 + stemp;
	
	return (int16_t)stemp;
     778:	20 e0       	ldi	r18, 0x00	; 0
     77a:	30 e0       	ldi	r19, 0x00	; 0
     77c:	44 e3       	ldi	r20, 0x34	; 52
     77e:	52 e4       	ldi	r21, 0x42	; 66
     780:	0e 94 db 08 	call	0x11b6	; 0x11b6 <__subsf3>
     784:	0e 94 ba 09 	call	0x1374	; 0x1374 <__fixsfsi>
}
     788:	cb 01       	movw	r24, r22
     78a:	08 95       	ret

0000078c <sts3x_read>:

uint16_t sts3x_read(void)
{
     78c:	1f 93       	push	r17
     78e:	cf 93       	push	r28
     790:	df 93       	push	r29
	uint8_t read[STS3X_NUM_OF_BYTES] = "";
	
	/*
	*	Alle Status Bits reseten..
	*/
	sts3x.state = 0;
     792:	10 92 80 00 	sts	0x0080, r1	; 0x800080 <sts3x>
	
	if ( i2c_rep_start( STS3x_ADDR + I2C_READ ) )
     796:	85 e9       	ldi	r24, 0x95	; 149
     798:	0e 94 7e 00 	call	0xfc	; 0xfc <i2c_rep_start>
     79c:	88 23       	and	r24, r24
     79e:	41 f0       	breq	.+16     	; 0x7b0 <sts3x_read+0x24>
	{
		sts3x.state |= STS3X_NO_NEW_DATA;
     7a0:	e0 e8       	ldi	r30, 0x80	; 128
     7a2:	f0 e0       	ldi	r31, 0x00	; 0
     7a4:	80 81       	ld	r24, Z
     7a6:	81 60       	ori	r24, 0x01	; 1
     7a8:	80 83       	st	Z, r24
		i2c_start_wait( STS3x_ADDR + I2C_READ );
     7aa:	85 e9       	ldi	r24, 0x95	; 149
     7ac:	0e 94 88 00 	call	0x110	; 0x110 <i2c_start_wait>
	}

	read[STS3X_MSB] = i2c_readAck();
     7b0:	0e 94 b8 00 	call	0x170	; 0x170 <i2c_readAck>
     7b4:	d8 2f       	mov	r29, r24
	read[STS3X_LSB] = i2c_readAck();
     7b6:	0e 94 b8 00 	call	0x170	; 0x170 <i2c_readAck>
     7ba:	c8 2f       	mov	r28, r24
	read[STS3X_CRC] = i2c_readNak();
     7bc:	0e 94 b6 00 	call	0x16c	; 0x16c <i2c_readNak>
     7c0:	18 2f       	mov	r17, r24

	i2c_stop();
     7c2:	0e 94 92 00 	call	0x124	; 0x124 <i2c_stop>

static __inline__ uint8_t
_crc8_ccitt_update(uint8_t __crc, uint8_t __data)
{
    uint8_t __i, __pattern;
    __asm__ __volatile__ (
     7c6:	9f ef       	ldi	r25, 0xFF	; 255
     7c8:	9d 27       	eor	r25, r29
     7ca:	88 e0       	ldi	r24, 0x08	; 8
     7cc:	21 e3       	ldi	r18, 0x31	; 49
     7ce:	99 0f       	add	r25, r25
     7d0:	08 f4       	brcc	.+2      	; 0x7d4 <sts3x_read+0x48>
     7d2:	92 27       	eor	r25, r18
     7d4:	8a 95       	dec	r24
     7d6:	d9 f7       	brne	.-10     	; 0x7ce <sts3x_read+0x42>
     7d8:	9c 27       	eor	r25, r28
     7da:	88 e0       	ldi	r24, 0x08	; 8
     7dc:	21 e3       	ldi	r18, 0x31	; 49
     7de:	99 0f       	add	r25, r25
     7e0:	08 f4       	brcc	.+2      	; 0x7e4 <sts3x_read+0x58>
     7e2:	92 27       	eor	r25, r18
     7e4:	8a 95       	dec	r24
     7e6:	d9 f7       	brne	.-10     	; 0x7de <sts3x_read+0x52>
	crc = _crc8_ccitt_update(crc,read[STS3X_LSB]);

	/* 
	* Generierten CRC mit empfangenen überprüfen 
	*/
	if ( crc == read[STS3X_CRC] )
     7e8:	19 13       	cpse	r17, r25
     7ea:	04 c0       	rjmp	.+8      	; 0x7f4 <sts3x_read+0x68>
	{
		return (uint16_t)read[STS3X_MSB] << 8 | read[STS3X_LSB];
     7ec:	8c 2f       	mov	r24, r28
     7ee:	90 e0       	ldi	r25, 0x00	; 0
     7f0:	9d 2b       	or	r25, r29
     7f2:	07 c0       	rjmp	.+14     	; 0x802 <sts3x_read+0x76>
	else
	{
		/*
		*	CRC Error
		*/
		sts3x.state |= STS3X_CRC_ERR;		
     7f4:	e0 e8       	ldi	r30, 0x80	; 128
     7f6:	f0 e0       	ldi	r31, 0x00	; 0
     7f8:	80 81       	ld	r24, Z
     7fa:	82 60       	ori	r24, 0x02	; 2
     7fc:	80 83       	st	Z, r24
	
	/*
	*	Schlägt eine Messung fehl oder CRC passt nicht
	*	wird der Wert für "0 °C" zurück gegeben
	*/
	return 17000;
     7fe:	88 e6       	ldi	r24, 0x68	; 104
     800:	92 e4       	ldi	r25, 0x42	; 66
}
     802:	df 91       	pop	r29
     804:	cf 91       	pop	r28
     806:	1f 91       	pop	r17
     808:	08 95       	ret

0000080a <sts3x_get_temp>:
	if ( (sts3x.state & STS3X_CRC_ERR)  )
	{
		//return sts3x.actual;
	}
	
	sts3x.actual = sts3x_calc( sts3x_read() );
     80a:	0e 94 c6 03 	call	0x78c	; 0x78c <sts3x_read>
     80e:	0e 94 ab 03 	call	0x756	; 0x756 <sts3x_calc>
     812:	80 93 82 00 	sts	0x0082, r24	; 0x800082 <sts3x+0x2>
	
	return (sts3x.actual);
}
     816:	08 2e       	mov	r0, r24
     818:	00 0c       	add	r0, r0
     81a:	99 0b       	sbc	r25, r25
     81c:	08 95       	ret

0000081e <tmp102_read>:
	
	return (int16_t)stemp;
}

uint16_t tmp102_read( void )
{
     81e:	cf 93       	push	r28
     820:	df 93       	push	r29
	
	uint8_t tmp[2] = { 0 , 0 };
	
	i2c_start_wait( TMP102_ADDR+I2C_READ );
     822:	83 e9       	ldi	r24, 0x93	; 147
     824:	0e 94 88 00 	call	0x110	; 0x110 <i2c_start_wait>
	tmp[TMP102_MSB] = i2c_readAck();
     828:	0e 94 b8 00 	call	0x170	; 0x170 <i2c_readAck>
     82c:	c8 2f       	mov	r28, r24
	tmp[TMP102_LSB] = i2c_readNak();
     82e:	0e 94 b6 00 	call	0x16c	; 0x16c <i2c_readNak>
     832:	d8 2f       	mov	r29, r24
	i2c_stop();
     834:	0e 94 92 00 	call	0x124	; 0x124 <i2c_stop>
	
	return ( ( (uint16_t)tmp[TMP102_MSB] << 4 | tmp[TMP102_LSB] >> 3 ) );
     838:	20 e1       	ldi	r18, 0x10	; 16
     83a:	c2 9f       	mul	r28, r18
     83c:	c0 01       	movw	r24, r0
     83e:	11 24       	eor	r1, r1
     840:	d6 95       	lsr	r29
     842:	d6 95       	lsr	r29
     844:	d6 95       	lsr	r29
}
     846:	8d 2b       	or	r24, r29
     848:	df 91       	pop	r29
     84a:	cf 91       	pop	r28
     84c:	08 95       	ret

0000084e <tmp102_get_temp>:

int16_t tmp102_get_temp( void )
{
	return tmp102_calc( tmp102_read() );
     84e:	0e 94 0f 04 	call	0x81e	; 0x81e <tmp102_read>
};


int16_t tmp102_calc( uint16_t temp ){

	double stemp=temp;
     852:	bc 01       	movw	r22, r24
     854:	80 e0       	ldi	r24, 0x00	; 0
     856:	90 e0       	ldi	r25, 0x00	; 0
     858:	0e 94 f0 09 	call	0x13e0	; 0x13e0 <__floatunsisf>
	return ( ( (uint16_t)tmp[TMP102_MSB] << 4 | tmp[TMP102_LSB] >> 3 ) );
}

int16_t tmp102_get_temp( void )
{
	return tmp102_calc( tmp102_read() );
     85c:	20 e0       	ldi	r18, 0x00	; 0
     85e:	30 e0       	ldi	r19, 0x00	; 0
     860:	40 e8       	ldi	r20, 0x80	; 128
     862:	5d e3       	ldi	r21, 0x3D	; 61
     864:	0e 94 7e 0a 	call	0x14fc	; 0x14fc <__mulsf3>
     868:	0e 94 ba 09 	call	0x1374	; 0x1374 <__fixsfsi>
     86c:	cb 01       	movw	r24, r22
     86e:	08 95       	ret

00000870 <__vector_13>:
    
    data = (UART_LastRxError << 8) + data;
    UART_LastRxError = 0;
    return data;

}/* uart_getc */
     870:	1f 92       	push	r1
     872:	0f 92       	push	r0
     874:	0f b6       	in	r0, 0x3f	; 63
     876:	0f 92       	push	r0
     878:	11 24       	eor	r1, r1
     87a:	2f 93       	push	r18
     87c:	8f 93       	push	r24
     87e:	9f 93       	push	r25
     880:	ef 93       	push	r30
     882:	ff 93       	push	r31
     884:	8b b1       	in	r24, 0x0b	; 11
     886:	2c b1       	in	r18, 0x0c	; 12
     888:	88 71       	andi	r24, 0x18	; 24
     88a:	e0 91 88 01 	lds	r30, 0x0188	; 0x800188 <UART_RxHead>
     88e:	ef 5f       	subi	r30, 0xFF	; 255
     890:	ef 73       	andi	r30, 0x3F	; 63
     892:	90 91 87 01 	lds	r25, 0x0187	; 0x800187 <UART_RxTail>
     896:	e9 17       	cp	r30, r25
     898:	39 f0       	breq	.+14     	; 0x8a8 <__vector_13+0x38>
     89a:	e0 93 88 01 	sts	0x0188, r30	; 0x800188 <UART_RxHead>
     89e:	f0 e0       	ldi	r31, 0x00	; 0
     8a0:	e5 57       	subi	r30, 0x75	; 117
     8a2:	fe 4f       	sbci	r31, 0xFE	; 254
     8a4:	20 83       	st	Z, r18
     8a6:	01 c0       	rjmp	.+2      	; 0x8aa <__vector_13+0x3a>
     8a8:	82 e0       	ldi	r24, 0x02	; 2
     8aa:	90 91 86 01 	lds	r25, 0x0186	; 0x800186 <UART_LastRxError>
     8ae:	89 2b       	or	r24, r25
     8b0:	80 93 86 01 	sts	0x0186, r24	; 0x800186 <UART_LastRxError>
     8b4:	ff 91       	pop	r31
     8b6:	ef 91       	pop	r30
     8b8:	9f 91       	pop	r25
     8ba:	8f 91       	pop	r24
     8bc:	2f 91       	pop	r18
     8be:	0f 90       	pop	r0
     8c0:	0f be       	out	0x3f, r0	; 63
     8c2:	0f 90       	pop	r0
     8c4:	1f 90       	pop	r1
     8c6:	18 95       	reti

000008c8 <__vector_14>:
     8c8:	1f 92       	push	r1
     8ca:	0f 92       	push	r0
     8cc:	0f b6       	in	r0, 0x3f	; 63
     8ce:	0f 92       	push	r0
     8d0:	11 24       	eor	r1, r1
     8d2:	8f 93       	push	r24
     8d4:	9f 93       	push	r25
     8d6:	ef 93       	push	r30
     8d8:	ff 93       	push	r31
     8da:	90 91 8a 01 	lds	r25, 0x018A	; 0x80018a <UART_TxHead>
     8de:	80 91 89 01 	lds	r24, 0x0189	; 0x800189 <UART_TxTail>
     8e2:	98 17       	cp	r25, r24
     8e4:	61 f0       	breq	.+24     	; 0x8fe <__vector_14+0x36>
     8e6:	e0 91 89 01 	lds	r30, 0x0189	; 0x800189 <UART_TxTail>
     8ea:	ef 5f       	subi	r30, 0xFF	; 255
     8ec:	ef 71       	andi	r30, 0x1F	; 31
     8ee:	e0 93 89 01 	sts	0x0189, r30	; 0x800189 <UART_TxTail>
     8f2:	f0 e0       	ldi	r31, 0x00	; 0
     8f4:	e5 53       	subi	r30, 0x35	; 53
     8f6:	fe 4f       	sbci	r31, 0xFE	; 254
     8f8:	80 81       	ld	r24, Z
     8fa:	8c b9       	out	0x0c, r24	; 12
     8fc:	01 c0       	rjmp	.+2      	; 0x900 <__vector_14+0x38>
     8fe:	55 98       	cbi	0x0a, 5	; 10
     900:	ff 91       	pop	r31
     902:	ef 91       	pop	r30
     904:	9f 91       	pop	r25
     906:	8f 91       	pop	r24
     908:	0f 90       	pop	r0
     90a:	0f be       	out	0x3f, r0	; 63
     90c:	0f 90       	pop	r0
     90e:	1f 90       	pop	r1
     910:	18 95       	reti

00000912 <uart_init>:
     912:	10 92 8a 01 	sts	0x018A, r1	; 0x80018a <UART_TxHead>
     916:	10 92 89 01 	sts	0x0189, r1	; 0x800189 <UART_TxTail>
     91a:	10 92 88 01 	sts	0x0188, r1	; 0x800188 <UART_RxHead>
     91e:	10 92 87 01 	sts	0x0187, r1	; 0x800187 <UART_RxTail>
     922:	99 23       	and	r25, r25
     924:	1c f4       	brge	.+6      	; 0x92c <uart_init+0x1a>
     926:	22 e0       	ldi	r18, 0x02	; 2
     928:	2b b9       	out	0x0b, r18	; 11
     92a:	9f 77       	andi	r25, 0x7F	; 127
     92c:	90 bd       	out	0x20, r25	; 32
     92e:	89 b9       	out	0x09, r24	; 9
     930:	88 e9       	ldi	r24, 0x98	; 152
     932:	8a b9       	out	0x0a, r24	; 10
     934:	86 e8       	ldi	r24, 0x86	; 134
     936:	80 bd       	out	0x20, r24	; 32
     938:	08 95       	ret

0000093a <uart_putc>:
void uart_putc(unsigned char data)
{
    unsigned char tmphead;

    
    tmphead  = (UART_TxHead + 1) & UART_TX_BUFFER_MASK;
     93a:	20 91 8a 01 	lds	r18, 0x018A	; 0x80018a <UART_TxHead>
     93e:	2f 5f       	subi	r18, 0xFF	; 255
     940:	2f 71       	andi	r18, 0x1F	; 31
    
    while ( tmphead == UART_TxTail ){
     942:	90 91 89 01 	lds	r25, 0x0189	; 0x800189 <UART_TxTail>
     946:	29 17       	cp	r18, r25
     948:	e1 f3       	breq	.-8      	; 0x942 <uart_putc+0x8>
        ;/* wait for free space in buffer */
    }
    
    UART_TxBuf[tmphead] = data;
     94a:	e2 2f       	mov	r30, r18
     94c:	f0 e0       	ldi	r31, 0x00	; 0
     94e:	e5 53       	subi	r30, 0x35	; 53
     950:	fe 4f       	sbci	r31, 0xFE	; 254
     952:	80 83       	st	Z, r24
    UART_TxHead = tmphead;
     954:	20 93 8a 01 	sts	0x018A, r18	; 0x80018a <UART_TxHead>

    /* enable UDRE interrupt */
    UART0_CONTROL    |= _BV(UART0_UDRIE);
     958:	55 9a       	sbi	0x0a, 5	; 10
     95a:	08 95       	ret

0000095c <uart_puts>:
Purpose:  transmit string to UART
Input:    string to be transmitted
Returns:  none          
**************************************************************************/
void uart_puts(const char *s )
{
     95c:	cf 93       	push	r28
     95e:	df 93       	push	r29
     960:	ec 01       	movw	r28, r24
    while (*s) 
     962:	88 81       	ld	r24, Y
     964:	88 23       	and	r24, r24
     966:	31 f0       	breq	.+12     	; 0x974 <uart_puts+0x18>
     968:	21 96       	adiw	r28, 0x01	; 1
      uart_putc(*s++);
     96a:	0e 94 9d 04 	call	0x93a	; 0x93a <uart_putc>
Input:    string to be transmitted
Returns:  none          
**************************************************************************/
void uart_puts(const char *s )
{
    while (*s) 
     96e:	89 91       	ld	r24, Y+
     970:	81 11       	cpse	r24, r1
     972:	fb cf       	rjmp	.-10     	; 0x96a <uart_puts+0xe>
      uart_putc(*s++);

}/* uart_puts */
     974:	df 91       	pop	r29
     976:	cf 91       	pop	r28
     978:	08 95       	ret

0000097a <timerInit>:
	if( val > max )
	{
		return 0;
	}
	return val;
}
     97a:	8e b5       	in	r24, 0x2e	; 46
     97c:	89 60       	ori	r24, 0x09	; 9
     97e:	8e bd       	out	0x2e, r24	; 46
     980:	89 b7       	in	r24, 0x39	; 57
     982:	80 61       	ori	r24, 0x10	; 16
     984:	89 bf       	out	0x39, r24	; 57
     986:	80 ed       	ldi	r24, 0xD0	; 208
     988:	97 e0       	ldi	r25, 0x07	; 7
     98a:	9b bd       	out	0x2b, r25	; 43
     98c:	8a bd       	out	0x2a, r24	; 42
     98e:	08 95       	ret

00000990 <readTemperature>:

void readTemperature( void )
{
     990:	cf 93       	push	r28
     992:	df 93       	push	r29
	tmp102.actual = tmp102_get_temp();
     994:	0e 94 27 04 	call	0x84e	; 0x84e <tmp102_get_temp>
     998:	c4 e8       	ldi	r28, 0x84	; 132
     99a:	d0 e0       	ldi	r29, 0x00	; 0
     99c:	8a 83       	std	Y+2, r24	; 0x02
	sts3x.actual = sts3x_get_temp();
     99e:	0e 94 05 04 	call	0x80a	; 0x80a <sts3x_get_temp>
     9a2:	80 93 82 00 	sts	0x0082, r24	; 0x800082 <sts3x+0x2>
				
	sys.temp = ( tmp102.actual + sts3x.actual ) / 2; 
     9a6:	9a 81       	ldd	r25, Y+2	; 0x02
     9a8:	28 2f       	mov	r18, r24
     9aa:	08 2e       	mov	r0, r24
     9ac:	00 0c       	add	r0, r0
     9ae:	33 0b       	sbc	r19, r19
     9b0:	29 0f       	add	r18, r25
     9b2:	31 1d       	adc	r19, r1
     9b4:	97 fd       	sbrc	r25, 7
     9b6:	3a 95       	dec	r19
     9b8:	33 23       	and	r19, r19
     9ba:	14 f4       	brge	.+4      	; 0x9c0 <readTemperature+0x30>
     9bc:	2f 5f       	subi	r18, 0xFF	; 255
     9be:	3f 4f       	sbci	r19, 0xFF	; 255
     9c0:	35 95       	asr	r19
     9c2:	27 95       	ror	r18
     9c4:	20 93 2c 02 	sts	0x022C, r18	; 0x80022c <sys+0x1>
		
	if ( sts3x.actual < sts3x.lowest )
     9c8:	20 91 81 00 	lds	r18, 0x0081	; 0x800081 <sts3x+0x1>
     9cc:	82 17       	cp	r24, r18
     9ce:	14 f4       	brge	.+4      	; 0x9d4 <readTemperature+0x44>
	{
		sts3x.lowest = sts3x.actual;
     9d0:	80 93 81 00 	sts	0x0081, r24	; 0x800081 <sts3x+0x1>
	}
	if ( tmp102.actual < tmp102.lowest)
     9d4:	20 91 85 00 	lds	r18, 0x0085	; 0x800085 <tmp102+0x1>
     9d8:	92 17       	cp	r25, r18
     9da:	14 f4       	brge	.+4      	; 0x9e0 <readTemperature+0x50>
	{
		tmp102.lowest = tmp102.actual;
     9dc:	90 93 85 00 	sts	0x0085, r25	; 0x800085 <tmp102+0x1>
	}
		
		
	if ( sts3x.actual > sts3x.highest )
     9e0:	20 91 83 00 	lds	r18, 0x0083	; 0x800083 <sts3x+0x3>
     9e4:	28 17       	cp	r18, r24
     9e6:	14 f4       	brge	.+4      	; 0x9ec <readTemperature+0x5c>
	{
		sts3x.highest = sts3x.actual;
     9e8:	80 93 83 00 	sts	0x0083, r24	; 0x800083 <sts3x+0x3>
	}
	if ( tmp102.actual > tmp102.highest )
     9ec:	80 91 87 00 	lds	r24, 0x0087	; 0x800087 <tmp102+0x3>
     9f0:	89 17       	cp	r24, r25
     9f2:	14 f4       	brge	.+4      	; 0x9f8 <readTemperature+0x68>
	{
		tmp102.highest = tmp102.actual;
     9f4:	90 93 87 00 	sts	0x0087, r25	; 0x800087 <tmp102+0x3>
	}		
}
     9f8:	df 91       	pop	r29
     9fa:	cf 91       	pop	r28
     9fc:	08 95       	ret

000009fe <setTime>:

void setTime( uint8_t *buff )
{
     9fe:	2f 92       	push	r2
     a00:	3f 92       	push	r3
     a02:	4f 92       	push	r4
     a04:	5f 92       	push	r5
     a06:	6f 92       	push	r6
     a08:	7f 92       	push	r7
     a0a:	8f 92       	push	r8
     a0c:	9f 92       	push	r9
     a0e:	af 92       	push	r10
     a10:	bf 92       	push	r11
     a12:	cf 92       	push	r12
     a14:	df 92       	push	r13
     a16:	ef 92       	push	r14
     a18:	ff 92       	push	r15
     a1a:	0f 93       	push	r16
     a1c:	1f 93       	push	r17
     a1e:	cf 93       	push	r28
     a20:	df 93       	push	r29
     a22:	ec 01       	movw	r28, r24
	#define TIME_OFFSET 35

	uint32_t _delay = 0;
	
	rtcGetData(&rtc);
     a24:	80 e3       	ldi	r24, 0x30	; 48
     a26:	92 e0       	ldi	r25, 0x02	; 2
     a28:	0e 94 46 03 	call	0x68c	; 0x68c <rtcGetData>
 	buff[0] = bcdToDec( rtc.hour );
     a2c:	00 e3       	ldi	r16, 0x30	; 48
     a2e:	12 e0       	ldi	r17, 0x02	; 2
     a30:	f8 01       	movw	r30, r16
     a32:	82 81       	ldd	r24, Z+2	; 0x02
     a34:	0e 94 91 02 	call	0x522	; 0x522 <bcdToDec>
     a38:	88 83       	st	Y, r24
 	buff[1] = bcdToDec( rtc.minute );
     a3a:	f8 01       	movw	r30, r16
     a3c:	81 81       	ldd	r24, Z+1	; 0x01
     a3e:	0e 94 91 02 	call	0x522	; 0x522 <bcdToDec>
     a42:	89 83       	std	Y+1, r24	; 0x01
	
	for ( uint8_t x = 0 ; x < 2 ; x++ )
	{
		encoder.result = 0;
     a44:	10 92 99 00 	sts	0x0099, r1	; 0x800099 <encoder+0x10>

void setTime( uint8_t *buff )
{
	#define TIME_OFFSET 35

	uint32_t _delay = 0;
     a48:	40 e0       	ldi	r20, 0x00	; 0
     a4a:	50 e0       	ldi	r21, 0x00	; 0
     a4c:	ba 01       	movw	r22, r20
	{
		encoder.result = 0;
		
		while (1)
		{
			buff[x] += encoder.result;
     a4e:	09 e8       	ldi	r16, 0x89	; 137
     a50:	10 e0       	ldi	r17, 0x00	; 0
				_delay = 0;
			}
			
			switch(x)
			{
				case 0: {buff[x] = checkMaxValue(buff[x],24);}break;
     a52:	21 2c       	mov	r2, r1
				case 1: {buff[x] = checkMaxValue(buff[x],59);}break;
			}
			
			if ( _delay++ < 10000 )
     a54:	41 2c       	mov	r4, r1
     a56:	51 2c       	mov	r5, r1
     a58:	31 2c       	mov	r3, r1
			buff[x] += encoder.result;
			
			if (encoder.result)
			{
				encoder.result = 0;
				_delay = 0;
     a5a:	61 2c       	mov	r6, r1
     a5c:	71 2c       	mov	r7, r1
     a5e:	81 2c       	mov	r8, r1
     a60:	91 2c       	mov	r9, r1

uint16_t checkMaxValue( uint16_t val , uint16_t max )
{
	if( val > max )
	{
		return 0;
     a62:	a1 2c       	mov	r10, r1
     a64:	b1 2c       	mov	r11, r1
	{
		encoder.result = 0;
		
		while (1)
		{
			buff[x] += encoder.result;
     a66:	f8 01       	movw	r30, r16
     a68:	80 89       	ldd	r24, Z+16	; 0x10
     a6a:	98 81       	ld	r25, Y
     a6c:	89 0f       	add	r24, r25
     a6e:	88 83       	st	Y, r24
			
			if (encoder.result)
     a70:	80 89       	ldd	r24, Z+16	; 0x10
     a72:	81 11       	cpse	r24, r1
     a74:	26 c0       	rjmp	.+76     	; 0xac2 <setTime+0xc4>
     a76:	10 c0       	rjmp	.+32     	; 0xa98 <setTime+0x9a>
				case 1: {buff[x] = checkMaxValue(buff[x],59);}break;
			}
			
			if ( _delay++ < 10000 )
			{
				timeDecToRam( buff[0] , buff[1] );
     a78:	69 81       	ldd	r22, Y+1	; 0x01
     a7a:	0e 94 57 01 	call	0x2ae	; 0x2ae <timeDecToRam>
     a7e:	2e c0       	rjmp	.+92     	; 0xadc <setTime+0xde>
			}
			else if ( _delay > 40000 )
     a80:	f1 e4       	ldi	r31, 0x41	; 65
     a82:	cf 16       	cp	r12, r31
     a84:	fc e9       	ldi	r31, 0x9C	; 156
     a86:	df 06       	cpc	r13, r31
     a88:	e1 04       	cpc	r14, r1
     a8a:	f1 04       	cpc	r15, r1
     a8c:	38 f1       	brcs	.+78     	; 0xadc <setTime+0xde>
			{
				switch(x)
				{
					case 0:
					{
						timeDecToRam( DISP_SPACE_CHAR , buff[1] );
     a8e:	69 81       	ldd	r22, Y+1	; 0x01
     a90:	8b e7       	ldi	r24, 0x7B	; 123
     a92:	0e 94 57 01 	call	0x2ae	; 0x2ae <timeDecToRam>
     a96:	22 c0       	rjmp	.+68     	; 0xadc <setTime+0xde>
				_delay = 0;
			}
			
			switch(x)
			{
				case 0: {buff[x] = checkMaxValue(buff[x],24);}break;
     a98:	28 81       	ld	r18, Y
     a9a:	30 e0       	ldi	r19, 0x00	; 0
	OCR1A   = ( (uint16_t)( F_CPU / 1 / 8000 ) );	
}

uint16_t checkMaxValue( uint16_t val , uint16_t max )
{
	if( val > max )
     a9c:	29 31       	cpi	r18, 0x19	; 25
     a9e:	31 05       	cpc	r19, r1
     aa0:	08 f0       	brcs	.+2      	; 0xaa4 <setTime+0xa6>
	{
		return 0;
     aa2:	2a 2d       	mov	r18, r10
				_delay = 0;
			}
			
			switch(x)
			{
				case 0: {buff[x] = checkMaxValue(buff[x],24);}break;
     aa4:	82 2f       	mov	r24, r18
     aa6:	28 83       	st	Y, r18
				case 1: {buff[x] = checkMaxValue(buff[x],59);}break;
			}
			
			if ( _delay++ < 10000 )
     aa8:	6a 01       	movw	r12, r20
     aaa:	7b 01       	movw	r14, r22
     aac:	2f ef       	ldi	r18, 0xFF	; 255
     aae:	c2 1a       	sub	r12, r18
     ab0:	d2 0a       	sbc	r13, r18
     ab2:	e2 0a       	sbc	r14, r18
     ab4:	f2 0a       	sbc	r15, r18
     ab6:	40 31       	cpi	r20, 0x10	; 16
     ab8:	57 42       	sbci	r21, 0x27	; 39
     aba:	61 05       	cpc	r22, r1
     abc:	71 05       	cpc	r23, r1
     abe:	00 f7       	brcc	.-64     	; 0xa80 <setTime+0x82>
     ac0:	db cf       	rjmp	.-74     	; 0xa78 <setTime+0x7a>
		{
			buff[x] += encoder.result;
			
			if (encoder.result)
			{
				encoder.result = 0;
     ac2:	f8 01       	movw	r30, r16
     ac4:	10 8a       	std	Z+16, r1	; 0x10
				_delay = 0;
			}
			
			switch(x)
			{
				case 0: {buff[x] = checkMaxValue(buff[x],24);}break;
     ac6:	28 81       	ld	r18, Y
     ac8:	30 e0       	ldi	r19, 0x00	; 0
	OCR1A   = ( (uint16_t)( F_CPU / 1 / 8000 ) );	
}

uint16_t checkMaxValue( uint16_t val , uint16_t max )
{
	if( val > max )
     aca:	29 31       	cpi	r18, 0x19	; 25
     acc:	31 05       	cpc	r19, r1
     ace:	08 f0       	brcs	.+2      	; 0xad2 <setTime+0xd4>
     ad0:	84 c0       	rjmp	.+264    	; 0xbda <setTime+0x1dc>
			buff[x] += encoder.result;
			
			if (encoder.result)
			{
				encoder.result = 0;
				_delay = 0;
     ad2:	46 2d       	mov	r20, r6
     ad4:	57 2d       	mov	r21, r7
     ad6:	68 2d       	mov	r22, r8
     ad8:	79 2d       	mov	r23, r9
     ada:	e4 cf       	rjmp	.-56     	; 0xaa4 <setTime+0xa6>
	OCR1A   = ( (uint16_t)( F_CPU / 1 / 8000 ) );	
}

uint16_t checkMaxValue( uint16_t val , uint16_t max )
{
	if( val > max )
     adc:	f9 ee       	ldi	r31, 0xE9	; 233
     ade:	cf 16       	cp	r12, r31
     ae0:	fd ef       	ldi	r31, 0xFD	; 253
     ae2:	df 06       	cpc	r13, r31
     ae4:	10 f0       	brcs	.+4      	; 0xaea <setTime+0xec>
	{
		return 0;
     ae6:	ca 2c       	mov	r12, r10
     ae8:	db 2c       	mov	r13, r11
					{
						timeDecToRam( buff[0] , DISP_SPACE_CHAR );
					}break;
				}
			}
			_delay = checkMaxValue(_delay,65000);
     aea:	a6 01       	movw	r20, r12
     aec:	60 e0       	ldi	r22, 0x00	; 0
     aee:	70 e0       	ldi	r23, 0x00	; 0

			if(!(ENC_SWITCH_PORT & 1<<ENC_SWITCH_bp))
     af0:	b4 99       	sbic	0x16, 4	; 22
     af2:	b9 cf       	rjmp	.-142    	; 0xa66 <setTime+0x68>
	#else
		//round up by default
		__ticks_dc = (uint32_t)(ceil(fabs(__tmp)));
	#endif

	__builtin_avr_delay_cycles(__ticks_dc);
     af4:	2f e7       	ldi	r18, 0x7F	; 127
     af6:	88 e3       	ldi	r24, 0x38	; 56
     af8:	91 e0       	ldi	r25, 0x01	; 1
     afa:	21 50       	subi	r18, 0x01	; 1
     afc:	80 40       	sbci	r24, 0x00	; 0
     afe:	90 40       	sbci	r25, 0x00	; 0
     b00:	e1 f7       	brne	.-8      	; 0xafa <setTime+0xfc>
     b02:	00 c0       	rjmp	.+0      	; 0xb04 <setTime+0x106>
     b04:	00 00       	nop
			{
				_delay_ms(25);
				if ((ENC_SWITCH_PORT & 1<<ENC_SWITCH_bp))
     b06:	b4 9b       	sbis	0x16, 4	; 22
     b08:	ae cf       	rjmp	.-164    	; 0xa66 <setTime+0x68>
 	buff[0] = bcdToDec( rtc.hour );
 	buff[1] = bcdToDec( rtc.minute );
	
	for ( uint8_t x = 0 ; x < 2 ; x++ )
	{
		encoder.result = 0;
     b0a:	10 92 99 00 	sts	0x0099, r1	; 0x800099 <encoder+0x10>
		
		while (1)
		{
			buff[x] += encoder.result;
     b0e:	09 e8       	ldi	r16, 0x89	; 137
     b10:	10 e0       	ldi	r17, 0x00	; 0
			
			if (encoder.result)
			{
				encoder.result = 0;
				_delay = 0;
     b12:	61 2c       	mov	r6, r1
     b14:	71 2c       	mov	r7, r1
     b16:	81 2c       	mov	r8, r1
     b18:	91 2c       	mov	r9, r1

uint16_t checkMaxValue( uint16_t val , uint16_t max )
{
	if( val > max )
	{
		return 0;
     b1a:	a1 2c       	mov	r10, r1
     b1c:	b1 2c       	mov	r11, r1
	{
		encoder.result = 0;
		
		while (1)
		{
			buff[x] += encoder.result;
     b1e:	f8 01       	movw	r30, r16
     b20:	80 89       	ldd	r24, Z+16	; 0x10
     b22:	99 81       	ldd	r25, Y+1	; 0x01
     b24:	89 0f       	add	r24, r25
     b26:	89 83       	std	Y+1, r24	; 0x01
			
			if (encoder.result)
     b28:	80 89       	ldd	r24, Z+16	; 0x10
     b2a:	88 23       	and	r24, r24
     b2c:	29 f0       	breq	.+10     	; 0xb38 <setTime+0x13a>
			{
				encoder.result = 0;
     b2e:	10 8a       	std	Z+16, r1	; 0x10
				_delay = 0;
     b30:	46 2d       	mov	r20, r6
     b32:	57 2d       	mov	r21, r7
     b34:	68 2d       	mov	r22, r8
     b36:	79 2d       	mov	r23, r9
			}
			
			switch(x)
			{
				case 0: {buff[x] = checkMaxValue(buff[x],24);}break;
				case 1: {buff[x] = checkMaxValue(buff[x],59);}break;
     b38:	89 81       	ldd	r24, Y+1	; 0x01
     b3a:	90 e0       	ldi	r25, 0x00	; 0
	OCR1A   = ( (uint16_t)( F_CPU / 1 / 8000 ) );	
}

uint16_t checkMaxValue( uint16_t val , uint16_t max )
{
	if( val > max )
     b3c:	8c 33       	cpi	r24, 0x3C	; 60
     b3e:	91 05       	cpc	r25, r1
     b40:	08 f0       	brcs	.+2      	; 0xb44 <setTime+0x146>
	{
		return 0;
     b42:	8a 2d       	mov	r24, r10
			}
			
			switch(x)
			{
				case 0: {buff[x] = checkMaxValue(buff[x],24);}break;
				case 1: {buff[x] = checkMaxValue(buff[x],59);}break;
     b44:	89 83       	std	Y+1, r24	; 0x01
			}
			
			if ( _delay++ < 10000 )
     b46:	6a 01       	movw	r12, r20
     b48:	7b 01       	movw	r14, r22
     b4a:	ff ef       	ldi	r31, 0xFF	; 255
     b4c:	cf 1a       	sub	r12, r31
     b4e:	df 0a       	sbc	r13, r31
     b50:	ef 0a       	sbc	r14, r31
     b52:	ff 0a       	sbc	r15, r31
     b54:	40 31       	cpi	r20, 0x10	; 16
     b56:	57 42       	sbci	r21, 0x27	; 39
     b58:	61 05       	cpc	r22, r1
     b5a:	71 05       	cpc	r23, r1
     b5c:	28 f4       	brcc	.+10     	; 0xb68 <setTime+0x16a>
			{
				timeDecToRam( buff[0] , buff[1] );
     b5e:	68 2f       	mov	r22, r24
     b60:	88 81       	ld	r24, Y
     b62:	0e 94 57 01 	call	0x2ae	; 0x2ae <timeDecToRam>
     b66:	0b c0       	rjmp	.+22     	; 0xb7e <setTime+0x180>
			}
			else if ( _delay > 40000 )
     b68:	81 e4       	ldi	r24, 0x41	; 65
     b6a:	c8 16       	cp	r12, r24
     b6c:	8c e9       	ldi	r24, 0x9C	; 156
     b6e:	d8 06       	cpc	r13, r24
     b70:	e1 04       	cpc	r14, r1
     b72:	f1 04       	cpc	r15, r1
     b74:	20 f0       	brcs	.+8      	; 0xb7e <setTime+0x180>
						timeDecToRam( DISP_SPACE_CHAR , buff[1] );
					}break;
					
					case 1:
					{
						timeDecToRam( buff[0] , DISP_SPACE_CHAR );
     b76:	6b e7       	ldi	r22, 0x7B	; 123
     b78:	88 81       	ld	r24, Y
     b7a:	0e 94 57 01 	call	0x2ae	; 0x2ae <timeDecToRam>
	OCR1A   = ( (uint16_t)( F_CPU / 1 / 8000 ) );	
}

uint16_t checkMaxValue( uint16_t val , uint16_t max )
{
	if( val > max )
     b7e:	99 ee       	ldi	r25, 0xE9	; 233
     b80:	c9 16       	cp	r12, r25
     b82:	9d ef       	ldi	r25, 0xFD	; 253
     b84:	d9 06       	cpc	r13, r25
     b86:	10 f0       	brcs	.+4      	; 0xb8c <setTime+0x18e>
	{
		return 0;
     b88:	ca 2c       	mov	r12, r10
     b8a:	db 2c       	mov	r13, r11
					{
						timeDecToRam( buff[0] , DISP_SPACE_CHAR );
					}break;
				}
			}
			_delay = checkMaxValue(_delay,65000);
     b8c:	a6 01       	movw	r20, r12
     b8e:	60 e0       	ldi	r22, 0x00	; 0
     b90:	70 e0       	ldi	r23, 0x00	; 0

			if(!(ENC_SWITCH_PORT & 1<<ENC_SWITCH_bp))
     b92:	b4 99       	sbic	0x16, 4	; 22
     b94:	c4 cf       	rjmp	.-120    	; 0xb1e <setTime+0x120>
     b96:	ef e7       	ldi	r30, 0x7F	; 127
     b98:	f8 e3       	ldi	r31, 0x38	; 56
     b9a:	21 e0       	ldi	r18, 0x01	; 1
     b9c:	e1 50       	subi	r30, 0x01	; 1
     b9e:	f0 40       	sbci	r31, 0x00	; 0
     ba0:	20 40       	sbci	r18, 0x00	; 0
     ba2:	e1 f7       	brne	.-8      	; 0xb9c <setTime+0x19e>
     ba4:	00 c0       	rjmp	.+0      	; 0xba6 <setTime+0x1a8>
     ba6:	00 00       	nop
			{
				_delay_ms(25);
				if ((ENC_SWITCH_PORT & 1<<ENC_SWITCH_bp))
     ba8:	b4 9b       	sbis	0x16, 4	; 22
     baa:	b9 cf       	rjmp	.-142    	; 0xb1e <setTime+0x120>
		}
	}
	
	for ( uint8_t i = 0 ; i < 4 ; i++)
	{
		disp.dig[i] = ' ';
     bac:	e9 e7       	ldi	r30, 0x79	; 121
     bae:	f0 e0       	ldi	r31, 0x00	; 0
     bb0:	80 e2       	ldi	r24, 0x20	; 32
     bb2:	80 83       	st	Z, r24
     bb4:	81 83       	std	Z+1, r24	; 0x01
     bb6:	82 83       	std	Z+2, r24	; 0x02
     bb8:	83 83       	std	Z+3, r24	; 0x03
	}
	
	sys.i2cBusy = 1;
     bba:	0b e2       	ldi	r16, 0x2B	; 43
     bbc:	12 e0       	ldi	r17, 0x02	; 2
     bbe:	f8 01       	movw	r30, r16
     bc0:	80 81       	ld	r24, Z
     bc2:	81 60       	ori	r24, 0x01	; 1
     bc4:	80 83       	st	Z, r24
	rtcSetTime( buff[0] , buff[1] , 0 );
     bc6:	40 e0       	ldi	r20, 0x00	; 0
     bc8:	69 81       	ldd	r22, Y+1	; 0x01
     bca:	88 81       	ld	r24, Y
     bcc:	0e 94 06 03 	call	0x60c	; 0x60c <rtcSetTime>
	sys.i2cBusy = 0;
     bd0:	f8 01       	movw	r30, r16
     bd2:	80 81       	ld	r24, Z
     bd4:	8e 7f       	andi	r24, 0xFE	; 254
     bd6:	80 83       	st	Z, r24
}
     bd8:	06 c0       	rjmp	.+12     	; 0xbe6 <setTime+0x1e8>
				_delay = 0;
			}
			
			switch(x)
			{
				case 0: {buff[x] = checkMaxValue(buff[x],24);}break;
     bda:	18 82       	st	Y, r1
     bdc:	82 2d       	mov	r24, r2
				case 1: {buff[x] = checkMaxValue(buff[x],59);}break;
			}
			
			if ( _delay++ < 10000 )
     bde:	cc 24       	eor	r12, r12
     be0:	c3 94       	inc	r12
     be2:	d4 2c       	mov	r13, r4
     be4:	49 cf       	rjmp	.-366    	; 0xa78 <setTime+0x7a>
	}
	
	sys.i2cBusy = 1;
	rtcSetTime( buff[0] , buff[1] , 0 );
	sys.i2cBusy = 0;
}
     be6:	df 91       	pop	r29
     be8:	cf 91       	pop	r28
     bea:	1f 91       	pop	r17
     bec:	0f 91       	pop	r16
     bee:	ff 90       	pop	r15
     bf0:	ef 90       	pop	r14
     bf2:	df 90       	pop	r13
     bf4:	cf 90       	pop	r12
     bf6:	bf 90       	pop	r11
     bf8:	af 90       	pop	r10
     bfa:	9f 90       	pop	r9
     bfc:	8f 90       	pop	r8
     bfe:	7f 90       	pop	r7
     c00:	6f 90       	pop	r6
     c02:	5f 90       	pop	r5
     c04:	4f 90       	pop	r4
     c06:	3f 90       	pop	r3
     c08:	2f 90       	pop	r2
     c0a:	08 95       	ret

00000c0c <checkForSetTime>:

void checkForSetTime( void )
{
     c0c:	cf 93       	push	r28
     c0e:	df 93       	push	r29
     c10:	00 d0       	rcall	.+0      	; 0xc12 <checkForSetTime+0x6>
     c12:	1f 92       	push	r1
     c14:	cd b7       	in	r28, 0x3d	; 61
     c16:	de b7       	in	r29, 0x3e	; 62
	uint8_t buff[3] = "";
     c18:	1a 82       	std	Y+2, r1	; 0x02
     c1a:	19 82       	std	Y+1, r1	; 0x01
     c1c:	1b 82       	std	Y+3, r1	; 0x03
	
	if ( ! (ENC_SWITCH_PORT & (1<<ENC_SWITCH_bp) ) )
     c1e:	b4 99       	sbic	0x16, 4	; 22
     c20:	2f c0       	rjmp	.+94     	; 0xc80 <checkForSetTime+0x74>
     c22:	2f ef       	ldi	r18, 0xFF	; 255
     c24:	31 ee       	ldi	r19, 0xE1	; 225
     c26:	44 e0       	ldi	r20, 0x04	; 4
     c28:	21 50       	subi	r18, 0x01	; 1
     c2a:	30 40       	sbci	r19, 0x00	; 0
     c2c:	40 40       	sbci	r20, 0x00	; 0
     c2e:	e1 f7       	brne	.-8      	; 0xc28 <checkForSetTime+0x1c>
     c30:	00 c0       	rjmp	.+0      	; 0xc32 <checkForSetTime+0x26>
     c32:	00 00       	nop
	{
		_delay_ms(100);
		while ( ( ! (ENC_SWITCH_PORT & 1<<ENC_SWITCH_bp) ) )
     c34:	b4 99       	sbic	0x16, 4	; 22
     c36:	20 c0       	rjmp	.+64     	; 0xc78 <checkForSetTime+0x6c>
		{
			for ( uint8_t i = 0 ; i < 4 ; i++ )
			{
				disp.dig[i] = '0';
     c38:	e9 e7       	ldi	r30, 0x79	; 121
     c3a:	f0 e0       	ldi	r31, 0x00	; 0
     c3c:	90 e3       	ldi	r25, 0x30	; 48
			
			_delay_ms(150);
			
			for ( uint8_t i = 0 ; i < 4 ; i++ )
			{
				disp.dig[i] = ' ';
     c3e:	80 e2       	ldi	r24, 0x20	; 32
		_delay_ms(100);
		while ( ( ! (ENC_SWITCH_PORT & 1<<ENC_SWITCH_bp) ) )
		{
			for ( uint8_t i = 0 ; i < 4 ; i++ )
			{
				disp.dig[i] = '0';
     c40:	90 83       	st	Z, r25
     c42:	91 83       	std	Z+1, r25	; 0x01
     c44:	92 83       	std	Z+2, r25	; 0x02
     c46:	93 83       	std	Z+3, r25	; 0x03
     c48:	2f ef       	ldi	r18, 0xFF	; 255
     c4a:	32 e5       	ldi	r19, 0x52	; 82
     c4c:	47 e0       	ldi	r20, 0x07	; 7
     c4e:	21 50       	subi	r18, 0x01	; 1
     c50:	30 40       	sbci	r19, 0x00	; 0
     c52:	40 40       	sbci	r20, 0x00	; 0
     c54:	e1 f7       	brne	.-8      	; 0xc4e <checkForSetTime+0x42>
     c56:	00 c0       	rjmp	.+0      	; 0xc58 <checkForSetTime+0x4c>
     c58:	00 00       	nop
			
			_delay_ms(150);
			
			for ( uint8_t i = 0 ; i < 4 ; i++ )
			{
				disp.dig[i] = ' ';
     c5a:	80 83       	st	Z, r24
     c5c:	81 83       	std	Z+1, r24	; 0x01
     c5e:	82 83       	std	Z+2, r24	; 0x02
     c60:	83 83       	std	Z+3, r24	; 0x03
     c62:	2f ef       	ldi	r18, 0xFF	; 255
     c64:	32 e5       	ldi	r19, 0x52	; 82
     c66:	47 e0       	ldi	r20, 0x07	; 7
     c68:	21 50       	subi	r18, 0x01	; 1
     c6a:	30 40       	sbci	r19, 0x00	; 0
     c6c:	40 40       	sbci	r20, 0x00	; 0
     c6e:	e1 f7       	brne	.-8      	; 0xc68 <checkForSetTime+0x5c>
     c70:	00 c0       	rjmp	.+0      	; 0xc72 <checkForSetTime+0x66>
     c72:	00 00       	nop
	uint8_t buff[3] = "";
	
	if ( ! (ENC_SWITCH_PORT & (1<<ENC_SWITCH_bp) ) )
	{
		_delay_ms(100);
		while ( ( ! (ENC_SWITCH_PORT & 1<<ENC_SWITCH_bp) ) )
     c74:	b4 9b       	sbis	0x16, 4	; 22
     c76:	e4 cf       	rjmp	.-56     	; 0xc40 <checkForSetTime+0x34>
			}
			
			_delay_ms(150);
			
		}
		setTime( buff );
     c78:	ce 01       	movw	r24, r28
     c7a:	01 96       	adiw	r24, 0x01	; 1
     c7c:	0e 94 ff 04 	call	0x9fe	; 0x9fe <setTime>
	}	
}
     c80:	0f 90       	pop	r0
     c82:	0f 90       	pop	r0
     c84:	0f 90       	pop	r0
     c86:	df 91       	pop	r29
     c88:	cf 91       	pop	r28
     c8a:	08 95       	ret

00000c8c <setRelais>:
void setRelais(uint8_t Kx)
{	
	/*
	*	Setze Relais
	*/
	RELAIS_PORT1_PORT = (Kx<<2);
     c8c:	98 2f       	mov	r25, r24
     c8e:	99 0f       	add	r25, r25
     c90:	99 0f       	add	r25, r25
     c92:	92 bb       	out	0x12, r25	; 18
	RELAIS_PORT2_PORT = ((Kx&0xC0)>>4);
     c94:	80 7c       	andi	r24, 0xC0	; 192
     c96:	90 e0       	ldi	r25, 0x00	; 0
     c98:	95 95       	asr	r25
     c9a:	87 95       	ror	r24
     c9c:	95 95       	asr	r25
     c9e:	87 95       	ror	r24
     ca0:	95 95       	asr	r25
     ca2:	87 95       	ror	r24
     ca4:	95 95       	asr	r25
     ca6:	87 95       	ror	r24
     ca8:	85 bb       	out	0x15, r24	; 21
     caa:	08 95       	ret

00000cac <eepLoad>:
}

void eepLoad( eep_t *e )
{
     cac:	cf 93       	push	r28
     cae:	df 93       	push	r29
     cb0:	ec 01       	movw	r28, r24
	if ( eeprom_read_byte( &e->isInit ) != 0xA2 )
     cb2:	0e 94 2b 0b 	call	0x1656	; 0x1656 <eeprom_read_byte>
     cb6:	82 3a       	cpi	r24, 0xA2	; 162
     cb8:	39 f0       	breq	.+14     	; 0xcc8 <eepLoad+0x1c>
	{
		eepRAM.isInit = 0x00;
     cba:	10 92 3c 02 	sts	0x023C, r1	; 0x80023c <eepRAM>
		eeprom_write_byte( &e->isInit , 0xA2 );
     cbe:	62 ea       	ldi	r22, 0xA2	; 162
     cc0:	ce 01       	movw	r24, r28
     cc2:	0e 94 33 0b 	call	0x1666	; 0x1666 <eeprom_write_byte>
     cc6:	03 c0       	rjmp	.+6      	; 0xcce <eepLoad+0x22>
	}
	else
	{
		eepRAM.isInit = 0x01;
     cc8:	81 e0       	ldi	r24, 0x01	; 1
     cca:	80 93 3c 02 	sts	0x023C, r24	; 0x80023c <eepRAM>
	}
}
     cce:	df 91       	pop	r29
     cd0:	cf 91       	pop	r28
     cd2:	08 95       	ret

00000cd4 <scrollMessage>:

void scrollMessage( char *msg , uint16_t delay_ms , uint8_t wait )
{
     cd4:	9f 92       	push	r9
     cd6:	af 92       	push	r10
     cd8:	bf 92       	push	r11
     cda:	cf 92       	push	r12
     cdc:	df 92       	push	r13
     cde:	ef 92       	push	r14
     ce0:	ff 92       	push	r15
     ce2:	0f 93       	push	r16
     ce4:	1f 93       	push	r17
     ce6:	cf 93       	push	r28
     ce8:	df 93       	push	r29
     cea:	8c 01       	movw	r16, r24
     cec:	7b 01       	movw	r14, r22
     cee:	d4 2e       	mov	r13, r20
	uint8_t leng = strlen( msg );
     cf0:	fc 01       	movw	r30, r24
     cf2:	01 90       	ld	r0, Z+
     cf4:	00 20       	and	r0, r0
     cf6:	e9 f7       	brne	.-6      	; 0xcf2 <scrollMessage+0x1e>
     cf8:	31 97       	sbiw	r30, 0x01	; 1
     cfa:	5f 01       	movw	r10, r30
     cfc:	a8 1a       	sub	r10, r24
     cfe:	b9 0a       	sbc	r11, r25
	static int8_t pos = -DIGITS;
	uint8_t w_ = wait;
	
	selectFont( (char**) charMap );
     d00:	8f ea       	ldi	r24, 0xAF	; 175
     d02:	90 e0       	ldi	r25, 0x00	; 0
     d04:	0e 94 f5 00 	call	0x1ea	; 0x1ea <selectFont>
     d08:	c0 90 88 00 	lds	r12, 0x0088	; 0x800088 <pos.2200>
	
	do 
	{
		if ( sys.scroll >= delay_ms && !sys.scrollIsRdy )
     d0c:	cb e2       	ldi	r28, 0x2B	; 43
     d0e:	d2 e0       	ldi	r29, 0x02	; 2
			{
				if ( (pos + ramPos) < 0 )
				{
					disp.dig[ramPos] = ' '; // Leerzeichen
				}
				else if ( (pos + ramPos) > leng - 1 )
     d10:	bb 24       	eor	r11, r11
     d12:	b5 01       	movw	r22, r10
     d14:	61 50       	subi	r22, 0x01	; 1
     d16:	71 09       	sbc	r23, r1
				{
					disp.dig[ramPos] = ' '; // Leerzeichen
     d18:	68 94       	set
     d1a:	99 24       	eor	r9, r9
     d1c:	95 f8       	bld	r9, 5
	
	selectFont( (char**) charMap );
	
	do 
	{
		if ( sys.scroll >= delay_ms && !sys.scrollIsRdy )
     d1e:	8a 81       	ldd	r24, Y+2	; 0x02
     d20:	9b 81       	ldd	r25, Y+3	; 0x03
     d22:	8e 15       	cp	r24, r14
     d24:	9f 05       	cpc	r25, r15
     d26:	80 f1       	brcs	.+96     	; 0xd88 <scrollMessage+0xb4>
     d28:	8c 81       	ldd	r24, Y+4	; 0x04
     d2a:	81 11       	cpse	r24, r1
     d2c:	2d c0       	rjmp	.+90     	; 0xd88 <scrollMessage+0xb4>
		{
			for ( int8_t ramPos = 0 ; ramPos < DIGITS ; ramPos++ )
			{
				if ( (pos + ramPos) < 0 )
     d2e:	4c 2d       	mov	r20, r12
     d30:	0c 2c       	mov	r0, r12
     d32:	00 0c       	add	r0, r0
     d34:	55 0b       	sbc	r21, r21
     d36:	a9 e7       	ldi	r26, 0x79	; 121
     d38:	b0 e0       	ldi	r27, 0x00	; 0
     d3a:	f8 01       	movw	r30, r16
     d3c:	e4 0f       	add	r30, r20
     d3e:	f5 1f       	adc	r31, r21
     d40:	9a 01       	movw	r18, r20
     d42:	2c 5f       	subi	r18, 0xFC	; 252
     d44:	3f 4f       	sbci	r19, 0xFF	; 255
     d46:	20 0f       	add	r18, r16
     d48:	31 1f       	adc	r19, r17
     d4a:	cf 01       	movw	r24, r30
     d4c:	80 1b       	sub	r24, r16
     d4e:	91 0b       	sbc	r25, r17
     d50:	12 f4       	brpl	.+4      	; 0xd56 <scrollMessage+0x82>
				{
					disp.dig[ramPos] = ' '; // Leerzeichen
     d52:	9c 92       	st	X, r9
     d54:	07 c0       	rjmp	.+14     	; 0xd64 <scrollMessage+0x90>
				}
				else if ( (pos + ramPos) > leng - 1 )
     d56:	68 17       	cp	r22, r24
     d58:	79 07       	cpc	r23, r25
     d5a:	14 f4       	brge	.+4      	; 0xd60 <scrollMessage+0x8c>
				{
					disp.dig[ramPos] = ' '; // Leerzeichen
     d5c:	9c 92       	st	X, r9
     d5e:	02 c0       	rjmp	.+4      	; 0xd64 <scrollMessage+0x90>
				}
				else
				{
					disp.dig[ramPos] = msg[ ramPos + pos ];
     d60:	80 81       	ld	r24, Z
     d62:	8c 93       	st	X, r24
     d64:	11 96       	adiw	r26, 0x01	; 1
     d66:	31 96       	adiw	r30, 0x01	; 1
	
	do 
	{
		if ( sys.scroll >= delay_ms && !sys.scrollIsRdy )
		{
			for ( int8_t ramPos = 0 ; ramPos < DIGITS ; ramPos++ )
     d68:	e2 17       	cp	r30, r18
     d6a:	f3 07       	cpc	r31, r19
     d6c:	71 f7       	brne	.-36     	; 0xd4a <scrollMessage+0x76>
				{
					disp.dig[ramPos] = msg[ ramPos + pos ];
				}
			}

			if( pos == leng )
     d6e:	4a 15       	cp	r20, r10
     d70:	5b 05       	cpc	r21, r11
     d72:	39 f4       	brne	.+14     	; 0xd82 <scrollMessage+0xae>
			{
				pos = -DIGITS;
     d74:	8c ef       	ldi	r24, 0xFC	; 252
     d76:	80 93 88 00 	sts	0x0088, r24	; 0x800088 <pos.2200>
				sys.scrollIsRdy = 1;
     d7a:	81 e0       	ldi	r24, 0x01	; 1
     d7c:	80 93 2f 02 	sts	0x022F, r24	; 0x80022f <sys+0x4>
				w_ = 0;
				break;
     d80:	07 c0       	rjmp	.+14     	; 0xd90 <scrollMessage+0xbc>
			}
			else
			{
				pos += 1;
     d82:	c3 94       	inc	r12
			}	
		
			sys.scroll	= 0;
     d84:	1b 82       	std	Y+3, r1	; 0x03
     d86:	1a 82       	std	Y+2, r1	; 0x02
		}		
	} while ( w_ );
     d88:	d1 10       	cpse	r13, r1
     d8a:	c9 cf       	rjmp	.-110    	; 0xd1e <scrollMessage+0x4a>
     d8c:	c0 92 88 00 	sts	0x0088, r12	; 0x800088 <pos.2200>
}
     d90:	df 91       	pop	r29
     d92:	cf 91       	pop	r28
     d94:	1f 91       	pop	r17
     d96:	0f 91       	pop	r16
     d98:	ff 90       	pop	r15
     d9a:	ef 90       	pop	r14
     d9c:	df 90       	pop	r13
     d9e:	cf 90       	pop	r12
     da0:	bf 90       	pop	r11
     da2:	af 90       	pop	r10
     da4:	9f 90       	pop	r9
     da6:	08 95       	ret

00000da8 <testHardware>:

void testHardware( void )
{
     da8:	cf 92       	push	r12
     daa:	df 92       	push	r13
     dac:	ef 92       	push	r14
     dae:	ff 92       	push	r15
     db0:	0f 93       	push	r16
     db2:	1f 93       	push	r17
     db4:	cf 93       	push	r28
     db6:	df 93       	push	r29
	uint8_t tmp = 0;

	selectFont( (char**) charMap );
     db8:	8f ea       	ldi	r24, 0xAF	; 175
     dba:	90 e0       	ldi	r25, 0x00	; 0
     dbc:	0e 94 f5 00 	call	0x1ea	; 0x1ea <selectFont>

	disp.dig[0] = '-';
     dc0:	e9 e7       	ldi	r30, 0x79	; 121
     dc2:	f0 e0       	ldi	r31, 0x00	; 0
     dc4:	8d e2       	ldi	r24, 0x2D	; 45
     dc6:	80 83       	st	Z, r24
	disp.dig[1] = '-';
     dc8:	81 83       	std	Z+1, r24	; 0x01
	disp.dig[2] = '-';
     dca:	82 83       	std	Z+2, r24	; 0x02
	disp.dig[3] = '-';
     dcc:	83 83       	std	Z+3, r24	; 0x03
     dce:	2f ef       	ldi	r18, 0xFF	; 255
     dd0:	89 e6       	ldi	r24, 0x69	; 105
     dd2:	98 e1       	ldi	r25, 0x18	; 24
     dd4:	21 50       	subi	r18, 0x01	; 1
     dd6:	80 40       	sbci	r24, 0x00	; 0
     dd8:	90 40       	sbci	r25, 0x00	; 0
     dda:	e1 f7       	brne	.-8      	; 0xdd4 <testHardware+0x2c>
     ddc:	00 c0       	rjmp	.+0      	; 0xdde <testHardware+0x36>
     dde:	00 00       	nop
	
	_delay_ms(500);
	
	while ( ! ( SWITCH_PIN & 1<<SWITCH_ENTER_bp ) ) {}
     de0:	b3 9b       	sbis	0x16, 3	; 22
     de2:	fe cf       	rjmp	.-4      	; 0xde0 <testHardware+0x38>
	
	while ( SWITCH_PIN & 1<<SWITCH_ENTER_bp )
     de4:	b3 9b       	sbis	0x16, 3	; 22
     de6:	8b c0       	rjmp	.+278    	; 0xefe <testHardware+0x156>
	{
		selectFont( (char**) segments );
		
		for (uint8_t x = '0' ; x < '8' ; x++)
		{
			disp.dig[0] = x;
     de8:	09 e7       	ldi	r16, 0x79	; 121
     dea:	10 e0       	ldi	r17, 0x00	; 0
			disp.dig[1] = x;
			disp.dig[2] = x;
			disp.dig[3] = x;
			setRelais( tmp = 1<<( x - '0' ) );
     dec:	d1 e0       	ldi	r29, 0x01	; 1
		setRelais( 0 );
		VIB_ON;
		_delay_ms(40);
		VIB_OFF;
		
		sys.i2cBusy = 1;
     dee:	0f 2e       	mov	r0, r31
     df0:	fb e2       	ldi	r31, 0x2B	; 43
     df2:	cf 2e       	mov	r12, r31
     df4:	f2 e0       	ldi	r31, 0x02	; 2
     df6:	df 2e       	mov	r13, r31
     df8:	f0 2d       	mov	r31, r0
	
	while ( ! ( SWITCH_PIN & 1<<SWITCH_ENTER_bp ) ) {}
	
	while ( SWITCH_PIN & 1<<SWITCH_ENTER_bp )
	{
		selectFont( (char**) segments );
     dfa:	8b e9       	ldi	r24, 0x9B	; 155
     dfc:	90 e0       	ldi	r25, 0x00	; 0
     dfe:	0e 94 f5 00 	call	0x1ea	; 0x1ea <selectFont>
     e02:	e1 2c       	mov	r14, r1
     e04:	f1 2c       	mov	r15, r1
		
		for (uint8_t x = '0' ; x < '8' ; x++)
     e06:	c0 e3       	ldi	r28, 0x30	; 48
		{
			disp.dig[0] = x;
     e08:	f8 01       	movw	r30, r16
     e0a:	c0 83       	st	Z, r28
			disp.dig[1] = x;
     e0c:	c1 83       	std	Z+1, r28	; 0x01
			disp.dig[2] = x;
     e0e:	c2 83       	std	Z+2, r28	; 0x02
			disp.dig[3] = x;
     e10:	c3 83       	std	Z+3, r28	; 0x03
			setRelais( tmp = 1<<( x - '0' ) );
     e12:	8d 2f       	mov	r24, r29
     e14:	0e 2c       	mov	r0, r14
     e16:	01 c0       	rjmp	.+2      	; 0xe1a <testHardware+0x72>
     e18:	88 0f       	add	r24, r24
     e1a:	0a 94       	dec	r0
     e1c:	ea f7       	brpl	.-6      	; 0xe18 <testHardware+0x70>
     e1e:	0e 94 46 06 	call	0xc8c	; 0xc8c <setRelais>
     e22:	ff ef       	ldi	r31, 0xFF	; 255
     e24:	29 e6       	ldi	r18, 0x69	; 105
     e26:	88 e1       	ldi	r24, 0x18	; 24
     e28:	f1 50       	subi	r31, 0x01	; 1
     e2a:	20 40       	sbci	r18, 0x00	; 0
     e2c:	80 40       	sbci	r24, 0x00	; 0
     e2e:	e1 f7       	brne	.-8      	; 0xe28 <testHardware+0x80>
     e30:	00 c0       	rjmp	.+0      	; 0xe32 <testHardware+0x8a>
     e32:	00 00       	nop
	
	while ( SWITCH_PIN & 1<<SWITCH_ENTER_bp )
	{
		selectFont( (char**) segments );
		
		for (uint8_t x = '0' ; x < '8' ; x++)
     e34:	cf 5f       	subi	r28, 0xFF	; 255
     e36:	9f ef       	ldi	r25, 0xFF	; 255
     e38:	e9 1a       	sub	r14, r25
     e3a:	f9 0a       	sbc	r15, r25
     e3c:	c8 33       	cpi	r28, 0x38	; 56
     e3e:	21 f7       	brne	.-56     	; 0xe08 <testHardware+0x60>
			disp.dig[3] = x;
			setRelais( tmp = 1<<( x - '0' ) );
			_delay_ms(500);
		}tmp = 0;
		
		clearDigits();
     e40:	0e 94 f6 01 	call	0x3ec	; 0x3ec <clearDigits>
		
		setRelais( 0 );
     e44:	80 e0       	ldi	r24, 0x00	; 0
     e46:	0e 94 46 06 	call	0xc8c	; 0xc8c <setRelais>
		VIB_ON;
     e4a:	c6 9a       	sbi	0x18, 6	; 24
     e4c:	ef ef       	ldi	r30, 0xFF	; 255
     e4e:	f3 ef       	ldi	r31, 0xF3	; 243
     e50:	21 e0       	ldi	r18, 0x01	; 1
     e52:	e1 50       	subi	r30, 0x01	; 1
     e54:	f0 40       	sbci	r31, 0x00	; 0
     e56:	20 40       	sbci	r18, 0x00	; 0
     e58:	e1 f7       	brne	.-8      	; 0xe52 <testHardware+0xaa>
     e5a:	00 c0       	rjmp	.+0      	; 0xe5c <testHardware+0xb4>
     e5c:	00 00       	nop
		_delay_ms(40);
		VIB_OFF;
     e5e:	c6 98       	cbi	0x18, 6	; 24
		
		sys.i2cBusy = 1;
     e60:	f6 01       	movw	r30, r12
     e62:	80 81       	ld	r24, Z
     e64:	81 60       	ori	r24, 0x01	; 1
     e66:	80 83       	st	Z, r24
     e68:	c5 e0       	ldi	r28, 0x05	; 5
		for ( uint8_t x = 0 ; x < 5 ; x++ )
		{
			refEnable(1);
     e6a:	81 e0       	ldi	r24, 0x01	; 1
     e6c:	0e 94 e9 01 	call	0x3d2	; 0x3d2 <refEnable>
     e70:	ff ef       	ldi	r31, 0xFF	; 255
     e72:	20 e7       	ldi	r18, 0x70	; 112
     e74:	82 e0       	ldi	r24, 0x02	; 2
     e76:	f1 50       	subi	r31, 0x01	; 1
     e78:	20 40       	sbci	r18, 0x00	; 0
     e7a:	80 40       	sbci	r24, 0x00	; 0
     e7c:	e1 f7       	brne	.-8      	; 0xe76 <testHardware+0xce>
     e7e:	00 c0       	rjmp	.+0      	; 0xe80 <testHardware+0xd8>
     e80:	00 00       	nop
			_delay_ms(50);
			refEnable(0);
     e82:	80 e0       	ldi	r24, 0x00	; 0
     e84:	0e 94 e9 01 	call	0x3d2	; 0x3d2 <refEnable>
     e88:	9f ef       	ldi	r25, 0xFF	; 255
     e8a:	e0 e7       	ldi	r30, 0x70	; 112
     e8c:	f2 e0       	ldi	r31, 0x02	; 2
     e8e:	91 50       	subi	r25, 0x01	; 1
     e90:	e0 40       	sbci	r30, 0x00	; 0
     e92:	f0 40       	sbci	r31, 0x00	; 0
     e94:	e1 f7       	brne	.-8      	; 0xe8e <testHardware+0xe6>
     e96:	00 c0       	rjmp	.+0      	; 0xe98 <testHardware+0xf0>
     e98:	00 00       	nop
     e9a:	c1 50       	subi	r28, 0x01	; 1
		VIB_ON;
		_delay_ms(40);
		VIB_OFF;
		
		sys.i2cBusy = 1;
		for ( uint8_t x = 0 ; x < 5 ; x++ )
     e9c:	31 f7       	brne	.-52     	; 0xe6a <testHardware+0xc2>
			refEnable(1);
			_delay_ms(50);
			refEnable(0);
			_delay_ms(50);
		}
		sys.i2cBusy = 0;
     e9e:	f6 01       	movw	r30, r12
     ea0:	80 81       	ld	r24, Z
     ea2:	8e 7f       	andi	r24, 0xFE	; 254
     ea4:	80 83       	st	Z, r24
		
		sys.scrollIsRdy = 0;
     ea6:	14 82       	std	Z+4, r1	; 0x04
		scrollMessage( "8888" , 2500 , 1 );
     ea8:	41 e0       	ldi	r20, 0x01	; 1
     eaa:	64 ec       	ldi	r22, 0xC4	; 196
     eac:	79 e0       	ldi	r23, 0x09	; 9
     eae:	89 e0       	ldi	r24, 0x09	; 9
     eb0:	91 e0       	ldi	r25, 0x01	; 1
     eb2:	0e 94 6a 06 	call	0xcd4	; 0xcd4 <scrollMessage>
		sys.scrollIsRdy = 0;
     eb6:	f6 01       	movw	r30, r12
     eb8:	14 82       	std	Z+4, r1	; 0x04
		
		uart_puts( "**HeschDevBoard_7Segment**\r\n");
     eba:	8e e0       	ldi	r24, 0x0E	; 14
     ebc:	91 e0       	ldi	r25, 0x01	; 1
     ebe:	0e 94 ae 04 	call	0x95c	; 0x95c <uart_puts>
		uart_puts( "Support by J.H - Elec.\r\n");
     ec2:	8b e2       	ldi	r24, 0x2B	; 43
     ec4:	91 e0       	ldi	r25, 0x01	; 1
     ec6:	0e 94 ae 04 	call	0x95c	; 0x95c <uart_puts>
		uart_puts( "www.jh-elec.de\r\n" );
     eca:	84 e4       	ldi	r24, 0x44	; 68
     ecc:	91 e0       	ldi	r25, 0x01	; 1
     ece:	0e 94 ae 04 	call	0x95c	; 0x95c <uart_puts>
		uart_puts( "Ver.: " );
     ed2:	85 e5       	ldi	r24, 0x55	; 85
     ed4:	91 e0       	ldi	r25, 0x01	; 1
     ed6:	0e 94 ae 04 	call	0x95c	; 0x95c <uart_puts>
		uart_puts( buildVer() );
     eda:	0e 94 d4 00 	call	0x1a8	; 0x1a8 <buildVer>
     ede:	0e 94 ae 04 	call	0x95c	; 0x95c <uart_puts>
		uart_puts( "\r\n" );
     ee2:	88 e2       	ldi	r24, 0x28	; 40
     ee4:	91 e0       	ldi	r25, 0x01	; 1
     ee6:	0e 94 ae 04 	call	0x95c	; 0x95c <uart_puts>
		uart_puts( "Testmode..\r\n" );
     eea:	8c e5       	ldi	r24, 0x5C	; 92
     eec:	91 e0       	ldi	r25, 0x01	; 1
     eee:	0e 94 ae 04 	call	0x95c	; 0x95c <uart_puts>
		uart_puts( "\r\n" );
     ef2:	88 e2       	ldi	r24, 0x28	; 40
     ef4:	91 e0       	ldi	r25, 0x01	; 1
     ef6:	0e 94 ae 04 	call	0x95c	; 0x95c <uart_puts>
	
	_delay_ms(500);
	
	while ( ! ( SWITCH_PIN & 1<<SWITCH_ENTER_bp ) ) {}
	
	while ( SWITCH_PIN & 1<<SWITCH_ENTER_bp )
     efa:	b3 99       	sbic	0x16, 3	; 22
     efc:	7e cf       	rjmp	.-260    	; 0xdfa <testHardware+0x52>
		uart_puts( buildVer() );
		uart_puts( "\r\n" );
		uart_puts( "Testmode..\r\n" );
		uart_puts( "\r\n" );
	}
}
     efe:	df 91       	pop	r29
     f00:	cf 91       	pop	r28
     f02:	1f 91       	pop	r17
     f04:	0f 91       	pop	r16
     f06:	ff 90       	pop	r15
     f08:	ef 90       	pop	r14
     f0a:	df 90       	pop	r13
     f0c:	cf 90       	pop	r12
     f0e:	08 95       	ret

00000f10 <main>:

char out[60] = "";

int main(void)
{
	hardware_init();
     f10:	0e 94 3e 02 	call	0x47c	; 0x47c <hardware_init>
	uart_init( UART_BAUD_SELECT( 9600 , F_CPU ) );
     f14:	87 e6       	ldi	r24, 0x67	; 103
     f16:	90 e0       	ldi	r25, 0x00	; 0
     f18:	0e 94 89 04 	call	0x912	; 0x912 <uart_init>
	
	eepLoad( &eep );
     f1c:	80 e0       	ldi	r24, 0x00	; 0
     f1e:	90 e0       	ldi	r25, 0x00	; 0
     f20:	0e 94 56 06 	call	0xcac	; 0xcac <eepLoad>
	i2c_init();
     f24:	0e 94 75 00 	call	0xea	; 0xea <i2c_init>
	mcp23017_init();
     f28:	0e 94 75 02 	call	0x4ea	; 0x4ea <mcp23017_init>
	sts3x_init();
     f2c:	0e 94 99 03 	call	0x732	; 0x732 <sts3x_init>
	timerInit();
     f30:	0e 94 bd 04 	call	0x97a	; 0x97a <timerInit>

	sei();
     f34:	78 94       	sei

	uart_puts( "**HeschDevBoard_7Segment**\r\n");
     f36:	8e e0       	ldi	r24, 0x0E	; 14
     f38:	91 e0       	ldi	r25, 0x01	; 1
     f3a:	0e 94 ae 04 	call	0x95c	; 0x95c <uart_puts>
	uart_puts( "Support by J.H - Elec.\r\n");
     f3e:	8b e2       	ldi	r24, 0x2B	; 43
     f40:	91 e0       	ldi	r25, 0x01	; 1
     f42:	0e 94 ae 04 	call	0x95c	; 0x95c <uart_puts>
	uart_puts( "www.jh-elec.de\r\n" );
     f46:	84 e4       	ldi	r24, 0x44	; 68
     f48:	91 e0       	ldi	r25, 0x01	; 1
     f4a:	0e 94 ae 04 	call	0x95c	; 0x95c <uart_puts>
	uart_puts( "Ver.: " );
     f4e:	85 e5       	ldi	r24, 0x55	; 85
     f50:	91 e0       	ldi	r25, 0x01	; 1
     f52:	0e 94 ae 04 	call	0x95c	; 0x95c <uart_puts>
	uart_puts( buildVer() );
     f56:	0e 94 d4 00 	call	0x1a8	; 0x1a8 <buildVer>
     f5a:	0e 94 ae 04 	call	0x95c	; 0x95c <uart_puts>

	checkForSetTime();
     f5e:	0e 94 06 06 	call	0xc0c	; 0xc0c <checkForSetTime>
	
	if ( ! (SWITCH_PIN & 1<<SWITCH_ENTER_bp) )
     f62:	b3 9b       	sbis	0x16, 3	; 22
	{
		testHardware();
     f64:	0e 94 d4 06 	call	0xda8	; 0xda8 <testHardware>
	}		
	
	strcpy( out , "Ver:");
     f68:	85 e0       	ldi	r24, 0x05	; 5
     f6a:	e9 e6       	ldi	r30, 0x69	; 105
     f6c:	f1 e0       	ldi	r31, 0x01	; 1
     f6e:	af ee       	ldi	r26, 0xEF	; 239
     f70:	b1 e0       	ldi	r27, 0x01	; 1
     f72:	01 90       	ld	r0, Z+
     f74:	0d 92       	st	X+, r0
     f76:	8a 95       	dec	r24
     f78:	e1 f7       	brne	.-8      	; 0xf72 <main+0x62>
	strcat( out , buildVer() );
     f7a:	0e 94 d4 00 	call	0x1a8	; 0x1a8 <buildVer>
     f7e:	bc 01       	movw	r22, r24
     f80:	8f ee       	ldi	r24, 0xEF	; 239
     f82:	91 e0       	ldi	r25, 0x01	; 1
     f84:	0e 94 19 0b 	call	0x1632	; 0x1632 <strcat>
	scrollMessage( out , 3000 , 1 );
     f88:	41 e0       	ldi	r20, 0x01	; 1
     f8a:	68 eb       	ldi	r22, 0xB8	; 184
     f8c:	7b e0       	ldi	r23, 0x0B	; 11
     f8e:	8f ee       	ldi	r24, 0xEF	; 239
     f90:	91 e0       	ldi	r25, 0x01	; 1
     f92:	0e 94 6a 06 	call	0xcd4	; 0xcd4 <scrollMessage>
	
	/*
	*	Wird gesetzt damit direkt nach dem einschalten
	*	das erste mal die Temperatur + Uhrzeit gelesen wird.
	*/
	sys.scrollIsRdy = 1;
     f96:	81 e0       	ldi	r24, 0x01	; 1
     f98:	80 93 2f 02 	sts	0x022F, r24	; 0x80022f <sys+0x4>

	while (1) 
    {	
			
		if ( sys.scrollIsRdy )
     f9c:	cb e2       	ldi	r28, 0x2B	; 43
     f9e:	d2 e0       	ldi	r29, 0x02	; 2
			rtcGetData( &rtc );
			sys.i2cBusy = 0; // Multiplexing wieder freigeben
			sys.scrollIsRdy = 0; // Es darf wieder gescrollt werden
		}
		
 		strcpy( out , tempToStr( sts3x.actual , 0 ) );
     fa0:	0f 2e       	mov	r0, r31
     fa2:	f0 e8       	ldi	r31, 0x80	; 128
     fa4:	af 2e       	mov	r10, r31
     fa6:	f0 e0       	ldi	r31, 0x00	; 0
     fa8:	bf 2e       	mov	r11, r31
     faa:	f0 2d       	mov	r31, r0
 		strcat( out , " - " );
     fac:	0f 2e       	mov	r0, r31
     fae:	f0 e2       	ldi	r31, 0x20	; 32
     fb0:	ef 2e       	mov	r14, r31
     fb2:	fd e2       	ldi	r31, 0x2D	; 45
     fb4:	ff 2e       	mov	r15, r31
     fb6:	f0 2d       	mov	r31, r0
     fb8:	00 e2       	ldi	r16, 0x20	; 32
     fba:	10 e0       	ldi	r17, 0x00	; 0
 		strcat( out , tempToStr( tmp102.actual , 1 ) );
     fbc:	0f 2e       	mov	r0, r31
     fbe:	f4 e8       	ldi	r31, 0x84	; 132
     fc0:	cf 2e       	mov	r12, r31
     fc2:	f0 e0       	ldi	r31, 0x00	; 0
     fc4:	df 2e       	mov	r13, r31
     fc6:	f0 2d       	mov	r31, r0
	sys.scrollIsRdy = 1;

	while (1) 
    {	
			
		if ( sys.scrollIsRdy )
     fc8:	8c 81       	ldd	r24, Y+4	; 0x04
     fca:	88 23       	and	r24, r24
     fcc:	69 f0       	breq	.+26     	; 0xfe8 <main+0xd8>
		{
			sys.i2cBusy = 1; // Multiplexing unterbrechen
     fce:	88 81       	ld	r24, Y
     fd0:	81 60       	ori	r24, 0x01	; 1
     fd2:	88 83       	st	Y, r24
			readTemperature(); 
     fd4:	0e 94 c8 04 	call	0x990	; 0x990 <readTemperature>
			rtcGetData( &rtc );
     fd8:	80 e3       	ldi	r24, 0x30	; 48
     fda:	92 e0       	ldi	r25, 0x02	; 2
     fdc:	0e 94 46 03 	call	0x68c	; 0x68c <rtcGetData>
			sys.i2cBusy = 0; // Multiplexing wieder freigeben
     fe0:	88 81       	ld	r24, Y
     fe2:	8e 7f       	andi	r24, 0xFE	; 254
     fe4:	88 83       	st	Y, r24
			sys.scrollIsRdy = 0; // Es darf wieder gescrollt werden
     fe6:	1c 82       	std	Y+4, r1	; 0x04
		}
		
 		strcpy( out , tempToStr( sts3x.actual , 0 ) );
     fe8:	f5 01       	movw	r30, r10
     fea:	82 81       	ldd	r24, Z+2	; 0x02
     fec:	60 e0       	ldi	r22, 0x00	; 0
     fee:	08 2e       	mov	r0, r24
     ff0:	00 0c       	add	r0, r0
     ff2:	99 0b       	sbc	r25, r25
     ff4:	0e 94 90 01 	call	0x320	; 0x320 <tempToStr>
     ff8:	bc 01       	movw	r22, r24
     ffa:	8f ee       	ldi	r24, 0xEF	; 239
     ffc:	91 e0       	ldi	r25, 0x01	; 1
     ffe:	0e 94 24 0b 	call	0x1648	; 0x1648 <strcpy>
 		strcat( out , " - " );
    1002:	0f 2e       	mov	r0, r31
    1004:	ff ee       	ldi	r31, 0xEF	; 239
    1006:	8f 2e       	mov	r8, r31
    1008:	f1 e0       	ldi	r31, 0x01	; 1
    100a:	9f 2e       	mov	r9, r31
    100c:	f0 2d       	mov	r31, r0
    100e:	f4 01       	movw	r30, r8
    1010:	01 90       	ld	r0, Z+
    1012:	00 20       	and	r0, r0
    1014:	e9 f7       	brne	.-6      	; 0x1010 <main+0x100>
    1016:	31 97       	sbiw	r30, 0x01	; 1
    1018:	f1 82       	std	Z+1, r15	; 0x01
    101a:	e0 82       	st	Z, r14
    101c:	13 83       	std	Z+3, r17	; 0x03
    101e:	02 83       	std	Z+2, r16	; 0x02
 		strcat( out , tempToStr( tmp102.actual , 1 ) );
    1020:	f6 01       	movw	r30, r12
    1022:	82 81       	ldd	r24, Z+2	; 0x02
    1024:	61 e0       	ldi	r22, 0x01	; 1
    1026:	08 2e       	mov	r0, r24
    1028:	00 0c       	add	r0, r0
    102a:	99 0b       	sbc	r25, r25
    102c:	0e 94 90 01 	call	0x320	; 0x320 <tempToStr>
    1030:	bc 01       	movw	r22, r24
    1032:	c4 01       	movw	r24, r8
    1034:	0e 94 19 0b 	call	0x1632	; 0x1632 <strcat>
 		strcat( out , " - " );
    1038:	f4 01       	movw	r30, r8
    103a:	01 90       	ld	r0, Z+
    103c:	00 20       	and	r0, r0
    103e:	e9 f7       	brne	.-6      	; 0x103a <main+0x12a>
    1040:	31 97       	sbiw	r30, 0x01	; 1
    1042:	f1 82       	std	Z+1, r15	; 0x01
    1044:	e0 82       	st	Z, r14
    1046:	13 83       	std	Z+3, r17	; 0x03
    1048:	02 83       	std	Z+2, r16	; 0x02
 		strcat( out , timeBcdToStr( rtc.hour , rtc.minute , rtc.second ) );				
    104a:	e0 e3       	ldi	r30, 0x30	; 48
    104c:	f2 e0       	ldi	r31, 0x02	; 2
    104e:	40 81       	ld	r20, Z
    1050:	61 81       	ldd	r22, Z+1	; 0x01
    1052:	82 81       	ldd	r24, Z+2	; 0x02
    1054:	0e 94 16 01 	call	0x22c	; 0x22c <timeBcdToStr>
    1058:	bc 01       	movw	r22, r24
    105a:	c4 01       	movw	r24, r8
    105c:	0e 94 19 0b 	call	0x1632	; 0x1632 <strcat>
		scrollMessage( out , 2000 , 0 );
    1060:	40 e0       	ldi	r20, 0x00	; 0
    1062:	60 ed       	ldi	r22, 0xD0	; 208
    1064:	77 e0       	ldi	r23, 0x07	; 7
    1066:	c4 01       	movw	r24, r8
    1068:	0e 94 6a 06 	call	0xcd4	; 0xcd4 <scrollMessage>
		
    }
    106c:	ad cf       	rjmp	.-166    	; 0xfc8 <main+0xb8>

0000106e <__vector_7>:
}

/* live the CPU?*/
ISR(TIMER1_COMPA_vect)
{
    106e:	1f 92       	push	r1
    1070:	0f 92       	push	r0
    1072:	0f b6       	in	r0, 0x3f	; 63
    1074:	0f 92       	push	r0
    1076:	11 24       	eor	r1, r1
    1078:	2f 93       	push	r18
    107a:	3f 93       	push	r19
    107c:	4f 93       	push	r20
    107e:	5f 93       	push	r21
    1080:	6f 93       	push	r22
    1082:	7f 93       	push	r23
    1084:	8f 93       	push	r24
    1086:	9f 93       	push	r25
    1088:	af 93       	push	r26
    108a:	bf 93       	push	r27
    108c:	ef 93       	push	r30
    108e:	ff 93       	push	r31
	static uint32_t stateLED = 0;
	sys.scroll++;
    1090:	eb e2       	ldi	r30, 0x2B	; 43
    1092:	f2 e0       	ldi	r31, 0x02	; 2
    1094:	82 81       	ldd	r24, Z+2	; 0x02
    1096:	93 81       	ldd	r25, Z+3	; 0x03
    1098:	01 96       	adiw	r24, 0x01	; 1
    109a:	93 83       	std	Z+3, r25	; 0x03
    109c:	82 83       	std	Z+2, r24	; 0x02
	
	/*
	*	Status Anzeige
	*/
	stateLED = checkMaxValue( ++stateLED , 10e3 );
    109e:	80 91 eb 01 	lds	r24, 0x01EB	; 0x8001eb <stateLED.2236>
    10a2:	90 91 ec 01 	lds	r25, 0x01EC	; 0x8001ec <stateLED.2236+0x1>
    10a6:	a0 91 ed 01 	lds	r26, 0x01ED	; 0x8001ed <stateLED.2236+0x2>
    10aa:	b0 91 ee 01 	lds	r27, 0x01EE	; 0x8001ee <stateLED.2236+0x3>
    10ae:	01 96       	adiw	r24, 0x01	; 1
    10b0:	a1 1d       	adc	r26, r1
    10b2:	b1 1d       	adc	r27, r1
	OCR1A   = ( (uint16_t)( F_CPU / 1 / 8000 ) );	
}

uint16_t checkMaxValue( uint16_t val , uint16_t max )
{
	if( val > max )
    10b4:	81 31       	cpi	r24, 0x11	; 17
    10b6:	27 e2       	ldi	r18, 0x27	; 39
    10b8:	92 07       	cpc	r25, r18
    10ba:	08 f0       	brcs	.+2      	; 0x10be <__vector_7+0x50>
    10bc:	62 c0       	rjmp	.+196    	; 0x1182 <__vector_7+0x114>
    10be:	aa 27       	eor	r26, r26
    10c0:	bb 27       	eor	r27, r27
	sys.scroll++;
	
	/*
	*	Status Anzeige
	*/
	stateLED = checkMaxValue( ++stateLED , 10e3 );
    10c2:	80 93 eb 01 	sts	0x01EB, r24	; 0x8001eb <stateLED.2236>
    10c6:	90 93 ec 01 	sts	0x01EC, r25	; 0x8001ec <stateLED.2236+0x1>
    10ca:	a0 93 ed 01 	sts	0x01ED, r26	; 0x8001ed <stateLED.2236+0x2>
    10ce:	b0 93 ee 01 	sts	0x01EE, r27	; 0x8001ee <stateLED.2236+0x3>
	
	if ( stateLED <= 200 )
    10d2:	89 3c       	cpi	r24, 0xC9	; 201
    10d4:	91 05       	cpc	r25, r1
    10d6:	a1 05       	cpc	r26, r1
    10d8:	b1 05       	cpc	r27, r1
    10da:	10 f4       	brcc	.+4      	; 0x10e0 <__vector_7+0x72>
	{
		BC(LED_HEARTBEAT_PORT,LED_HEARTBEAT_bp);
    10dc:	c7 98       	cbi	0x18, 7	; 24
    10de:	24 c0       	rjmp	.+72     	; 0x1128 <__vector_7+0xba>
	}
	else if ( ( stateLED >= 400 ) && ( stateLED <= 600 ) )
    10e0:	ac 01       	movw	r20, r24
    10e2:	bd 01       	movw	r22, r26
    10e4:	40 59       	subi	r20, 0x90	; 144
    10e6:	51 40       	sbci	r21, 0x01	; 1
    10e8:	61 09       	sbc	r22, r1
    10ea:	71 09       	sbc	r23, r1
    10ec:	49 3c       	cpi	r20, 0xC9	; 201
    10ee:	51 05       	cpc	r21, r1
    10f0:	61 05       	cpc	r22, r1
    10f2:	71 05       	cpc	r23, r1
    10f4:	10 f4       	brcc	.+4      	; 0x10fa <__vector_7+0x8c>
	{
		BS(LED_HEARTBEAT_PORT,LED_HEARTBEAT_bp);
    10f6:	c7 9a       	sbi	0x18, 7	; 24
    10f8:	17 c0       	rjmp	.+46     	; 0x1128 <__vector_7+0xba>
	}
	else if ( ( stateLED >= 1000 ) && ( stateLED <= 1400 ) )
    10fa:	ac 01       	movw	r20, r24
    10fc:	bd 01       	movw	r22, r26
    10fe:	48 5e       	subi	r20, 0xE8	; 232
    1100:	53 40       	sbci	r21, 0x03	; 3
    1102:	61 09       	sbc	r22, r1
    1104:	71 09       	sbc	r23, r1
    1106:	41 39       	cpi	r20, 0x91	; 145
    1108:	51 40       	sbci	r21, 0x01	; 1
    110a:	61 05       	cpc	r22, r1
    110c:	71 05       	cpc	r23, r1
    110e:	10 f4       	brcc	.+4      	; 0x1114 <__vector_7+0xa6>
	{
		BC(LED_HEARTBEAT_PORT,LED_HEARTBEAT_bp);
    1110:	c7 98       	cbi	0x18, 7	; 24
    1112:	0a c0       	rjmp	.+20     	; 0x1128 <__vector_7+0xba>
	}
	else if ( ( stateLED >= 1600 ) && ( stateLED <= 1800 ) )
    1114:	80 54       	subi	r24, 0x40	; 64
    1116:	96 40       	sbci	r25, 0x06	; 6
    1118:	a1 09       	sbc	r26, r1
    111a:	b1 09       	sbc	r27, r1
    111c:	89 3c       	cpi	r24, 0xC9	; 201
    111e:	91 05       	cpc	r25, r1
    1120:	a1 05       	cpc	r26, r1
    1122:	b1 05       	cpc	r27, r1
    1124:	08 f4       	brcc	.+2      	; 0x1128 <__vector_7+0xba>
	{
		BS(LED_HEARTBEAT_PORT,LED_HEARTBEAT_bp);
    1126:	c7 9a       	sbi	0x18, 7	; 24
	}
	
	/*
	*	Drehencoder auswertung.
	*/
	encoder.Last = ( ( encoder.Last << 2 ) & 0x0F );
    1128:	e9 e8       	ldi	r30, 0x89	; 137
    112a:	f0 e0       	ldi	r31, 0x00	; 0
    112c:	81 89       	ldd	r24, Z+17	; 0x11
    112e:	24 e0       	ldi	r18, 0x04	; 4
    1130:	82 02       	muls	r24, r18
    1132:	c0 01       	movw	r24, r0
    1134:	11 24       	eor	r1, r1
    1136:	8f 70       	andi	r24, 0x0F	; 15
    1138:	81 8b       	std	Z+17, r24	; 0x11
	if (ENC_PIN & 1<<ENC_B)
    113a:	c9 9b       	sbis	0x19, 1	; 25
    113c:	03 c0       	rjmp	.+6      	; 0x1144 <__vector_7+0xd6>
	{
		encoder.Last |= 2;
    113e:	81 89       	ldd	r24, Z+17	; 0x11
    1140:	82 60       	ori	r24, 0x02	; 2
    1142:	81 8b       	std	Z+17, r24	; 0x11
	}
	if (ENC_PIN & 1<<ENC_A)
    1144:	ca 9b       	sbis	0x19, 2	; 25
    1146:	05 c0       	rjmp	.+10     	; 0x1152 <__vector_7+0xe4>
	{
		encoder.Last |= 1;
    1148:	e9 e8       	ldi	r30, 0x89	; 137
    114a:	f0 e0       	ldi	r31, 0x00	; 0
    114c:	81 89       	ldd	r24, Z+17	; 0x11
    114e:	81 60       	ori	r24, 0x01	; 1
    1150:	81 8b       	std	Z+17, r24	; 0x11
	} 	
	encoder.result += encoder.Table[encoder.Last];	
    1152:	a9 e8       	ldi	r26, 0x89	; 137
    1154:	b0 e0       	ldi	r27, 0x00	; 0
    1156:	51 96       	adiw	r26, 0x11	; 17
    1158:	ec 91       	ld	r30, X
    115a:	51 97       	sbiw	r26, 0x11	; 17
    115c:	0e 2e       	mov	r0, r30
    115e:	00 0c       	add	r0, r0
    1160:	ff 0b       	sbc	r31, r31
    1162:	e7 57       	subi	r30, 0x77	; 119
    1164:	ff 4f       	sbci	r31, 0xFF	; 255
    1166:	80 81       	ld	r24, Z
    1168:	50 96       	adiw	r26, 0x10	; 16
    116a:	9c 91       	ld	r25, X
    116c:	50 97       	sbiw	r26, 0x10	; 16
    116e:	89 0f       	add	r24, r25
    1170:	50 96       	adiw	r26, 0x10	; 16
    1172:	8c 93       	st	X, r24
	
	if ( !sys.i2cBusy )
    1174:	80 91 2b 02 	lds	r24, 0x022B	; 0x80022b <sys>
    1178:	80 fd       	sbrc	r24, 0
    117a:	0c c0       	rjmp	.+24     	; 0x1194 <__vector_7+0x126>
	{
		muxDigits();	
    117c:	0e 94 fe 01 	call	0x3fc	; 0x3fc <muxDigits>
	}
    1180:	09 c0       	rjmp	.+18     	; 0x1194 <__vector_7+0x126>
	sys.scroll++;
	
	/*
	*	Status Anzeige
	*/
	stateLED = checkMaxValue( ++stateLED , 10e3 );
    1182:	10 92 eb 01 	sts	0x01EB, r1	; 0x8001eb <stateLED.2236>
    1186:	10 92 ec 01 	sts	0x01EC, r1	; 0x8001ec <stateLED.2236+0x1>
    118a:	10 92 ed 01 	sts	0x01ED, r1	; 0x8001ed <stateLED.2236+0x2>
    118e:	10 92 ee 01 	sts	0x01EE, r1	; 0x8001ee <stateLED.2236+0x3>
    1192:	a4 cf       	rjmp	.-184    	; 0x10dc <__vector_7+0x6e>
	
	if ( !sys.i2cBusy )
	{
		muxDigits();	
	}
    1194:	ff 91       	pop	r31
    1196:	ef 91       	pop	r30
    1198:	bf 91       	pop	r27
    119a:	af 91       	pop	r26
    119c:	9f 91       	pop	r25
    119e:	8f 91       	pop	r24
    11a0:	7f 91       	pop	r23
    11a2:	6f 91       	pop	r22
    11a4:	5f 91       	pop	r21
    11a6:	4f 91       	pop	r20
    11a8:	3f 91       	pop	r19
    11aa:	2f 91       	pop	r18
    11ac:	0f 90       	pop	r0
    11ae:	0f be       	out	0x3f, r0	; 63
    11b0:	0f 90       	pop	r0
    11b2:	1f 90       	pop	r1
    11b4:	18 95       	reti

000011b6 <__subsf3>:
    11b6:	50 58       	subi	r21, 0x80	; 128

000011b8 <__addsf3>:
    11b8:	bb 27       	eor	r27, r27
    11ba:	aa 27       	eor	r26, r26
    11bc:	0e 94 f3 08 	call	0x11e6	; 0x11e6 <__addsf3x>
    11c0:	0c 94 44 0a 	jmp	0x1488	; 0x1488 <__fp_round>
    11c4:	0e 94 36 0a 	call	0x146c	; 0x146c <__fp_pscA>
    11c8:	38 f0       	brcs	.+14     	; 0x11d8 <__addsf3+0x20>
    11ca:	0e 94 3d 0a 	call	0x147a	; 0x147a <__fp_pscB>
    11ce:	20 f0       	brcs	.+8      	; 0x11d8 <__addsf3+0x20>
    11d0:	39 f4       	brne	.+14     	; 0x11e0 <__addsf3+0x28>
    11d2:	9f 3f       	cpi	r25, 0xFF	; 255
    11d4:	19 f4       	brne	.+6      	; 0x11dc <__addsf3+0x24>
    11d6:	26 f4       	brtc	.+8      	; 0x11e0 <__addsf3+0x28>
    11d8:	0c 94 33 0a 	jmp	0x1466	; 0x1466 <__fp_nan>
    11dc:	0e f4       	brtc	.+2      	; 0x11e0 <__addsf3+0x28>
    11de:	e0 95       	com	r30
    11e0:	e7 fb       	bst	r30, 7
    11e2:	0c 94 2d 0a 	jmp	0x145a	; 0x145a <__fp_inf>

000011e6 <__addsf3x>:
    11e6:	e9 2f       	mov	r30, r25
    11e8:	0e 94 55 0a 	call	0x14aa	; 0x14aa <__fp_split3>
    11ec:	58 f3       	brcs	.-42     	; 0x11c4 <__addsf3+0xc>
    11ee:	ba 17       	cp	r27, r26
    11f0:	62 07       	cpc	r22, r18
    11f2:	73 07       	cpc	r23, r19
    11f4:	84 07       	cpc	r24, r20
    11f6:	95 07       	cpc	r25, r21
    11f8:	20 f0       	brcs	.+8      	; 0x1202 <__addsf3x+0x1c>
    11fa:	79 f4       	brne	.+30     	; 0x121a <__addsf3x+0x34>
    11fc:	a6 f5       	brtc	.+104    	; 0x1266 <__addsf3x+0x80>
    11fe:	0c 94 77 0a 	jmp	0x14ee	; 0x14ee <__fp_zero>
    1202:	0e f4       	brtc	.+2      	; 0x1206 <__addsf3x+0x20>
    1204:	e0 95       	com	r30
    1206:	0b 2e       	mov	r0, r27
    1208:	ba 2f       	mov	r27, r26
    120a:	a0 2d       	mov	r26, r0
    120c:	0b 01       	movw	r0, r22
    120e:	b9 01       	movw	r22, r18
    1210:	90 01       	movw	r18, r0
    1212:	0c 01       	movw	r0, r24
    1214:	ca 01       	movw	r24, r20
    1216:	a0 01       	movw	r20, r0
    1218:	11 24       	eor	r1, r1
    121a:	ff 27       	eor	r31, r31
    121c:	59 1b       	sub	r21, r25
    121e:	99 f0       	breq	.+38     	; 0x1246 <__addsf3x+0x60>
    1220:	59 3f       	cpi	r21, 0xF9	; 249
    1222:	50 f4       	brcc	.+20     	; 0x1238 <__addsf3x+0x52>
    1224:	50 3e       	cpi	r21, 0xE0	; 224
    1226:	68 f1       	brcs	.+90     	; 0x1282 <__addsf3x+0x9c>
    1228:	1a 16       	cp	r1, r26
    122a:	f0 40       	sbci	r31, 0x00	; 0
    122c:	a2 2f       	mov	r26, r18
    122e:	23 2f       	mov	r18, r19
    1230:	34 2f       	mov	r19, r20
    1232:	44 27       	eor	r20, r20
    1234:	58 5f       	subi	r21, 0xF8	; 248
    1236:	f3 cf       	rjmp	.-26     	; 0x121e <__addsf3x+0x38>
    1238:	46 95       	lsr	r20
    123a:	37 95       	ror	r19
    123c:	27 95       	ror	r18
    123e:	a7 95       	ror	r26
    1240:	f0 40       	sbci	r31, 0x00	; 0
    1242:	53 95       	inc	r21
    1244:	c9 f7       	brne	.-14     	; 0x1238 <__addsf3x+0x52>
    1246:	7e f4       	brtc	.+30     	; 0x1266 <__addsf3x+0x80>
    1248:	1f 16       	cp	r1, r31
    124a:	ba 0b       	sbc	r27, r26
    124c:	62 0b       	sbc	r22, r18
    124e:	73 0b       	sbc	r23, r19
    1250:	84 0b       	sbc	r24, r20
    1252:	ba f0       	brmi	.+46     	; 0x1282 <__addsf3x+0x9c>
    1254:	91 50       	subi	r25, 0x01	; 1
    1256:	a1 f0       	breq	.+40     	; 0x1280 <__addsf3x+0x9a>
    1258:	ff 0f       	add	r31, r31
    125a:	bb 1f       	adc	r27, r27
    125c:	66 1f       	adc	r22, r22
    125e:	77 1f       	adc	r23, r23
    1260:	88 1f       	adc	r24, r24
    1262:	c2 f7       	brpl	.-16     	; 0x1254 <__addsf3x+0x6e>
    1264:	0e c0       	rjmp	.+28     	; 0x1282 <__addsf3x+0x9c>
    1266:	ba 0f       	add	r27, r26
    1268:	62 1f       	adc	r22, r18
    126a:	73 1f       	adc	r23, r19
    126c:	84 1f       	adc	r24, r20
    126e:	48 f4       	brcc	.+18     	; 0x1282 <__addsf3x+0x9c>
    1270:	87 95       	ror	r24
    1272:	77 95       	ror	r23
    1274:	67 95       	ror	r22
    1276:	b7 95       	ror	r27
    1278:	f7 95       	ror	r31
    127a:	9e 3f       	cpi	r25, 0xFE	; 254
    127c:	08 f0       	brcs	.+2      	; 0x1280 <__addsf3x+0x9a>
    127e:	b0 cf       	rjmp	.-160    	; 0x11e0 <__addsf3+0x28>
    1280:	93 95       	inc	r25
    1282:	88 0f       	add	r24, r24
    1284:	08 f0       	brcs	.+2      	; 0x1288 <__addsf3x+0xa2>
    1286:	99 27       	eor	r25, r25
    1288:	ee 0f       	add	r30, r30
    128a:	97 95       	ror	r25
    128c:	87 95       	ror	r24
    128e:	08 95       	ret

00001290 <__divsf3>:
    1290:	0e 94 5c 09 	call	0x12b8	; 0x12b8 <__divsf3x>
    1294:	0c 94 44 0a 	jmp	0x1488	; 0x1488 <__fp_round>
    1298:	0e 94 3d 0a 	call	0x147a	; 0x147a <__fp_pscB>
    129c:	58 f0       	brcs	.+22     	; 0x12b4 <__divsf3+0x24>
    129e:	0e 94 36 0a 	call	0x146c	; 0x146c <__fp_pscA>
    12a2:	40 f0       	brcs	.+16     	; 0x12b4 <__divsf3+0x24>
    12a4:	29 f4       	brne	.+10     	; 0x12b0 <__divsf3+0x20>
    12a6:	5f 3f       	cpi	r21, 0xFF	; 255
    12a8:	29 f0       	breq	.+10     	; 0x12b4 <__divsf3+0x24>
    12aa:	0c 94 2d 0a 	jmp	0x145a	; 0x145a <__fp_inf>
    12ae:	51 11       	cpse	r21, r1
    12b0:	0c 94 78 0a 	jmp	0x14f0	; 0x14f0 <__fp_szero>
    12b4:	0c 94 33 0a 	jmp	0x1466	; 0x1466 <__fp_nan>

000012b8 <__divsf3x>:
    12b8:	0e 94 55 0a 	call	0x14aa	; 0x14aa <__fp_split3>
    12bc:	68 f3       	brcs	.-38     	; 0x1298 <__divsf3+0x8>

000012be <__divsf3_pse>:
    12be:	99 23       	and	r25, r25
    12c0:	b1 f3       	breq	.-20     	; 0x12ae <__divsf3+0x1e>
    12c2:	55 23       	and	r21, r21
    12c4:	91 f3       	breq	.-28     	; 0x12aa <__divsf3+0x1a>
    12c6:	95 1b       	sub	r25, r21
    12c8:	55 0b       	sbc	r21, r21
    12ca:	bb 27       	eor	r27, r27
    12cc:	aa 27       	eor	r26, r26
    12ce:	62 17       	cp	r22, r18
    12d0:	73 07       	cpc	r23, r19
    12d2:	84 07       	cpc	r24, r20
    12d4:	38 f0       	brcs	.+14     	; 0x12e4 <__divsf3_pse+0x26>
    12d6:	9f 5f       	subi	r25, 0xFF	; 255
    12d8:	5f 4f       	sbci	r21, 0xFF	; 255
    12da:	22 0f       	add	r18, r18
    12dc:	33 1f       	adc	r19, r19
    12de:	44 1f       	adc	r20, r20
    12e0:	aa 1f       	adc	r26, r26
    12e2:	a9 f3       	breq	.-22     	; 0x12ce <__divsf3_pse+0x10>
    12e4:	35 d0       	rcall	.+106    	; 0x1350 <__divsf3_pse+0x92>
    12e6:	0e 2e       	mov	r0, r30
    12e8:	3a f0       	brmi	.+14     	; 0x12f8 <__divsf3_pse+0x3a>
    12ea:	e0 e8       	ldi	r30, 0x80	; 128
    12ec:	32 d0       	rcall	.+100    	; 0x1352 <__divsf3_pse+0x94>
    12ee:	91 50       	subi	r25, 0x01	; 1
    12f0:	50 40       	sbci	r21, 0x00	; 0
    12f2:	e6 95       	lsr	r30
    12f4:	00 1c       	adc	r0, r0
    12f6:	ca f7       	brpl	.-14     	; 0x12ea <__divsf3_pse+0x2c>
    12f8:	2b d0       	rcall	.+86     	; 0x1350 <__divsf3_pse+0x92>
    12fa:	fe 2f       	mov	r31, r30
    12fc:	29 d0       	rcall	.+82     	; 0x1350 <__divsf3_pse+0x92>
    12fe:	66 0f       	add	r22, r22
    1300:	77 1f       	adc	r23, r23
    1302:	88 1f       	adc	r24, r24
    1304:	bb 1f       	adc	r27, r27
    1306:	26 17       	cp	r18, r22
    1308:	37 07       	cpc	r19, r23
    130a:	48 07       	cpc	r20, r24
    130c:	ab 07       	cpc	r26, r27
    130e:	b0 e8       	ldi	r27, 0x80	; 128
    1310:	09 f0       	breq	.+2      	; 0x1314 <__divsf3_pse+0x56>
    1312:	bb 0b       	sbc	r27, r27
    1314:	80 2d       	mov	r24, r0
    1316:	bf 01       	movw	r22, r30
    1318:	ff 27       	eor	r31, r31
    131a:	93 58       	subi	r25, 0x83	; 131
    131c:	5f 4f       	sbci	r21, 0xFF	; 255
    131e:	3a f0       	brmi	.+14     	; 0x132e <__divsf3_pse+0x70>
    1320:	9e 3f       	cpi	r25, 0xFE	; 254
    1322:	51 05       	cpc	r21, r1
    1324:	78 f0       	brcs	.+30     	; 0x1344 <__divsf3_pse+0x86>
    1326:	0c 94 2d 0a 	jmp	0x145a	; 0x145a <__fp_inf>
    132a:	0c 94 78 0a 	jmp	0x14f0	; 0x14f0 <__fp_szero>
    132e:	5f 3f       	cpi	r21, 0xFF	; 255
    1330:	e4 f3       	brlt	.-8      	; 0x132a <__divsf3_pse+0x6c>
    1332:	98 3e       	cpi	r25, 0xE8	; 232
    1334:	d4 f3       	brlt	.-12     	; 0x132a <__divsf3_pse+0x6c>
    1336:	86 95       	lsr	r24
    1338:	77 95       	ror	r23
    133a:	67 95       	ror	r22
    133c:	b7 95       	ror	r27
    133e:	f7 95       	ror	r31
    1340:	9f 5f       	subi	r25, 0xFF	; 255
    1342:	c9 f7       	brne	.-14     	; 0x1336 <__divsf3_pse+0x78>
    1344:	88 0f       	add	r24, r24
    1346:	91 1d       	adc	r25, r1
    1348:	96 95       	lsr	r25
    134a:	87 95       	ror	r24
    134c:	97 f9       	bld	r25, 7
    134e:	08 95       	ret
    1350:	e1 e0       	ldi	r30, 0x01	; 1
    1352:	66 0f       	add	r22, r22
    1354:	77 1f       	adc	r23, r23
    1356:	88 1f       	adc	r24, r24
    1358:	bb 1f       	adc	r27, r27
    135a:	62 17       	cp	r22, r18
    135c:	73 07       	cpc	r23, r19
    135e:	84 07       	cpc	r24, r20
    1360:	ba 07       	cpc	r27, r26
    1362:	20 f0       	brcs	.+8      	; 0x136c <__divsf3_pse+0xae>
    1364:	62 1b       	sub	r22, r18
    1366:	73 0b       	sbc	r23, r19
    1368:	84 0b       	sbc	r24, r20
    136a:	ba 0b       	sbc	r27, r26
    136c:	ee 1f       	adc	r30, r30
    136e:	88 f7       	brcc	.-30     	; 0x1352 <__divsf3_pse+0x94>
    1370:	e0 95       	com	r30
    1372:	08 95       	ret

00001374 <__fixsfsi>:
    1374:	0e 94 c1 09 	call	0x1382	; 0x1382 <__fixunssfsi>
    1378:	68 94       	set
    137a:	b1 11       	cpse	r27, r1
    137c:	0c 94 78 0a 	jmp	0x14f0	; 0x14f0 <__fp_szero>
    1380:	08 95       	ret

00001382 <__fixunssfsi>:
    1382:	0e 94 5d 0a 	call	0x14ba	; 0x14ba <__fp_splitA>
    1386:	88 f0       	brcs	.+34     	; 0x13aa <__fixunssfsi+0x28>
    1388:	9f 57       	subi	r25, 0x7F	; 127
    138a:	98 f0       	brcs	.+38     	; 0x13b2 <__fixunssfsi+0x30>
    138c:	b9 2f       	mov	r27, r25
    138e:	99 27       	eor	r25, r25
    1390:	b7 51       	subi	r27, 0x17	; 23
    1392:	b0 f0       	brcs	.+44     	; 0x13c0 <__fixunssfsi+0x3e>
    1394:	e1 f0       	breq	.+56     	; 0x13ce <__fixunssfsi+0x4c>
    1396:	66 0f       	add	r22, r22
    1398:	77 1f       	adc	r23, r23
    139a:	88 1f       	adc	r24, r24
    139c:	99 1f       	adc	r25, r25
    139e:	1a f0       	brmi	.+6      	; 0x13a6 <__fixunssfsi+0x24>
    13a0:	ba 95       	dec	r27
    13a2:	c9 f7       	brne	.-14     	; 0x1396 <__fixunssfsi+0x14>
    13a4:	14 c0       	rjmp	.+40     	; 0x13ce <__fixunssfsi+0x4c>
    13a6:	b1 30       	cpi	r27, 0x01	; 1
    13a8:	91 f0       	breq	.+36     	; 0x13ce <__fixunssfsi+0x4c>
    13aa:	0e 94 77 0a 	call	0x14ee	; 0x14ee <__fp_zero>
    13ae:	b1 e0       	ldi	r27, 0x01	; 1
    13b0:	08 95       	ret
    13b2:	0c 94 77 0a 	jmp	0x14ee	; 0x14ee <__fp_zero>
    13b6:	67 2f       	mov	r22, r23
    13b8:	78 2f       	mov	r23, r24
    13ba:	88 27       	eor	r24, r24
    13bc:	b8 5f       	subi	r27, 0xF8	; 248
    13be:	39 f0       	breq	.+14     	; 0x13ce <__fixunssfsi+0x4c>
    13c0:	b9 3f       	cpi	r27, 0xF9	; 249
    13c2:	cc f3       	brlt	.-14     	; 0x13b6 <__fixunssfsi+0x34>
    13c4:	86 95       	lsr	r24
    13c6:	77 95       	ror	r23
    13c8:	67 95       	ror	r22
    13ca:	b3 95       	inc	r27
    13cc:	d9 f7       	brne	.-10     	; 0x13c4 <__fixunssfsi+0x42>
    13ce:	3e f4       	brtc	.+14     	; 0x13de <__fixunssfsi+0x5c>
    13d0:	90 95       	com	r25
    13d2:	80 95       	com	r24
    13d4:	70 95       	com	r23
    13d6:	61 95       	neg	r22
    13d8:	7f 4f       	sbci	r23, 0xFF	; 255
    13da:	8f 4f       	sbci	r24, 0xFF	; 255
    13dc:	9f 4f       	sbci	r25, 0xFF	; 255
    13de:	08 95       	ret

000013e0 <__floatunsisf>:
    13e0:	e8 94       	clt
    13e2:	09 c0       	rjmp	.+18     	; 0x13f6 <__floatsisf+0x12>

000013e4 <__floatsisf>:
    13e4:	97 fb       	bst	r25, 7
    13e6:	3e f4       	brtc	.+14     	; 0x13f6 <__floatsisf+0x12>
    13e8:	90 95       	com	r25
    13ea:	80 95       	com	r24
    13ec:	70 95       	com	r23
    13ee:	61 95       	neg	r22
    13f0:	7f 4f       	sbci	r23, 0xFF	; 255
    13f2:	8f 4f       	sbci	r24, 0xFF	; 255
    13f4:	9f 4f       	sbci	r25, 0xFF	; 255
    13f6:	99 23       	and	r25, r25
    13f8:	a9 f0       	breq	.+42     	; 0x1424 <__floatsisf+0x40>
    13fa:	f9 2f       	mov	r31, r25
    13fc:	96 e9       	ldi	r25, 0x96	; 150
    13fe:	bb 27       	eor	r27, r27
    1400:	93 95       	inc	r25
    1402:	f6 95       	lsr	r31
    1404:	87 95       	ror	r24
    1406:	77 95       	ror	r23
    1408:	67 95       	ror	r22
    140a:	b7 95       	ror	r27
    140c:	f1 11       	cpse	r31, r1
    140e:	f8 cf       	rjmp	.-16     	; 0x1400 <__floatsisf+0x1c>
    1410:	fa f4       	brpl	.+62     	; 0x1450 <__floatsisf+0x6c>
    1412:	bb 0f       	add	r27, r27
    1414:	11 f4       	brne	.+4      	; 0x141a <__floatsisf+0x36>
    1416:	60 ff       	sbrs	r22, 0
    1418:	1b c0       	rjmp	.+54     	; 0x1450 <__floatsisf+0x6c>
    141a:	6f 5f       	subi	r22, 0xFF	; 255
    141c:	7f 4f       	sbci	r23, 0xFF	; 255
    141e:	8f 4f       	sbci	r24, 0xFF	; 255
    1420:	9f 4f       	sbci	r25, 0xFF	; 255
    1422:	16 c0       	rjmp	.+44     	; 0x1450 <__floatsisf+0x6c>
    1424:	88 23       	and	r24, r24
    1426:	11 f0       	breq	.+4      	; 0x142c <__floatsisf+0x48>
    1428:	96 e9       	ldi	r25, 0x96	; 150
    142a:	11 c0       	rjmp	.+34     	; 0x144e <__floatsisf+0x6a>
    142c:	77 23       	and	r23, r23
    142e:	21 f0       	breq	.+8      	; 0x1438 <__floatsisf+0x54>
    1430:	9e e8       	ldi	r25, 0x8E	; 142
    1432:	87 2f       	mov	r24, r23
    1434:	76 2f       	mov	r23, r22
    1436:	05 c0       	rjmp	.+10     	; 0x1442 <__floatsisf+0x5e>
    1438:	66 23       	and	r22, r22
    143a:	71 f0       	breq	.+28     	; 0x1458 <__floatsisf+0x74>
    143c:	96 e8       	ldi	r25, 0x86	; 134
    143e:	86 2f       	mov	r24, r22
    1440:	70 e0       	ldi	r23, 0x00	; 0
    1442:	60 e0       	ldi	r22, 0x00	; 0
    1444:	2a f0       	brmi	.+10     	; 0x1450 <__floatsisf+0x6c>
    1446:	9a 95       	dec	r25
    1448:	66 0f       	add	r22, r22
    144a:	77 1f       	adc	r23, r23
    144c:	88 1f       	adc	r24, r24
    144e:	da f7       	brpl	.-10     	; 0x1446 <__floatsisf+0x62>
    1450:	88 0f       	add	r24, r24
    1452:	96 95       	lsr	r25
    1454:	87 95       	ror	r24
    1456:	97 f9       	bld	r25, 7
    1458:	08 95       	ret

0000145a <__fp_inf>:
    145a:	97 f9       	bld	r25, 7
    145c:	9f 67       	ori	r25, 0x7F	; 127
    145e:	80 e8       	ldi	r24, 0x80	; 128
    1460:	70 e0       	ldi	r23, 0x00	; 0
    1462:	60 e0       	ldi	r22, 0x00	; 0
    1464:	08 95       	ret

00001466 <__fp_nan>:
    1466:	9f ef       	ldi	r25, 0xFF	; 255
    1468:	80 ec       	ldi	r24, 0xC0	; 192
    146a:	08 95       	ret

0000146c <__fp_pscA>:
    146c:	00 24       	eor	r0, r0
    146e:	0a 94       	dec	r0
    1470:	16 16       	cp	r1, r22
    1472:	17 06       	cpc	r1, r23
    1474:	18 06       	cpc	r1, r24
    1476:	09 06       	cpc	r0, r25
    1478:	08 95       	ret

0000147a <__fp_pscB>:
    147a:	00 24       	eor	r0, r0
    147c:	0a 94       	dec	r0
    147e:	12 16       	cp	r1, r18
    1480:	13 06       	cpc	r1, r19
    1482:	14 06       	cpc	r1, r20
    1484:	05 06       	cpc	r0, r21
    1486:	08 95       	ret

00001488 <__fp_round>:
    1488:	09 2e       	mov	r0, r25
    148a:	03 94       	inc	r0
    148c:	00 0c       	add	r0, r0
    148e:	11 f4       	brne	.+4      	; 0x1494 <__fp_round+0xc>
    1490:	88 23       	and	r24, r24
    1492:	52 f0       	brmi	.+20     	; 0x14a8 <__fp_round+0x20>
    1494:	bb 0f       	add	r27, r27
    1496:	40 f4       	brcc	.+16     	; 0x14a8 <__fp_round+0x20>
    1498:	bf 2b       	or	r27, r31
    149a:	11 f4       	brne	.+4      	; 0x14a0 <__fp_round+0x18>
    149c:	60 ff       	sbrs	r22, 0
    149e:	04 c0       	rjmp	.+8      	; 0x14a8 <__fp_round+0x20>
    14a0:	6f 5f       	subi	r22, 0xFF	; 255
    14a2:	7f 4f       	sbci	r23, 0xFF	; 255
    14a4:	8f 4f       	sbci	r24, 0xFF	; 255
    14a6:	9f 4f       	sbci	r25, 0xFF	; 255
    14a8:	08 95       	ret

000014aa <__fp_split3>:
    14aa:	57 fd       	sbrc	r21, 7
    14ac:	90 58       	subi	r25, 0x80	; 128
    14ae:	44 0f       	add	r20, r20
    14b0:	55 1f       	adc	r21, r21
    14b2:	59 f0       	breq	.+22     	; 0x14ca <__fp_splitA+0x10>
    14b4:	5f 3f       	cpi	r21, 0xFF	; 255
    14b6:	71 f0       	breq	.+28     	; 0x14d4 <__fp_splitA+0x1a>
    14b8:	47 95       	ror	r20

000014ba <__fp_splitA>:
    14ba:	88 0f       	add	r24, r24
    14bc:	97 fb       	bst	r25, 7
    14be:	99 1f       	adc	r25, r25
    14c0:	61 f0       	breq	.+24     	; 0x14da <__fp_splitA+0x20>
    14c2:	9f 3f       	cpi	r25, 0xFF	; 255
    14c4:	79 f0       	breq	.+30     	; 0x14e4 <__fp_splitA+0x2a>
    14c6:	87 95       	ror	r24
    14c8:	08 95       	ret
    14ca:	12 16       	cp	r1, r18
    14cc:	13 06       	cpc	r1, r19
    14ce:	14 06       	cpc	r1, r20
    14d0:	55 1f       	adc	r21, r21
    14d2:	f2 cf       	rjmp	.-28     	; 0x14b8 <__fp_split3+0xe>
    14d4:	46 95       	lsr	r20
    14d6:	f1 df       	rcall	.-30     	; 0x14ba <__fp_splitA>
    14d8:	08 c0       	rjmp	.+16     	; 0x14ea <__fp_splitA+0x30>
    14da:	16 16       	cp	r1, r22
    14dc:	17 06       	cpc	r1, r23
    14de:	18 06       	cpc	r1, r24
    14e0:	99 1f       	adc	r25, r25
    14e2:	f1 cf       	rjmp	.-30     	; 0x14c6 <__fp_splitA+0xc>
    14e4:	86 95       	lsr	r24
    14e6:	71 05       	cpc	r23, r1
    14e8:	61 05       	cpc	r22, r1
    14ea:	08 94       	sec
    14ec:	08 95       	ret

000014ee <__fp_zero>:
    14ee:	e8 94       	clt

000014f0 <__fp_szero>:
    14f0:	bb 27       	eor	r27, r27
    14f2:	66 27       	eor	r22, r22
    14f4:	77 27       	eor	r23, r23
    14f6:	cb 01       	movw	r24, r22
    14f8:	97 f9       	bld	r25, 7
    14fa:	08 95       	ret

000014fc <__mulsf3>:
    14fc:	0e 94 91 0a 	call	0x1522	; 0x1522 <__mulsf3x>
    1500:	0c 94 44 0a 	jmp	0x1488	; 0x1488 <__fp_round>
    1504:	0e 94 36 0a 	call	0x146c	; 0x146c <__fp_pscA>
    1508:	38 f0       	brcs	.+14     	; 0x1518 <__mulsf3+0x1c>
    150a:	0e 94 3d 0a 	call	0x147a	; 0x147a <__fp_pscB>
    150e:	20 f0       	brcs	.+8      	; 0x1518 <__mulsf3+0x1c>
    1510:	95 23       	and	r25, r21
    1512:	11 f0       	breq	.+4      	; 0x1518 <__mulsf3+0x1c>
    1514:	0c 94 2d 0a 	jmp	0x145a	; 0x145a <__fp_inf>
    1518:	0c 94 33 0a 	jmp	0x1466	; 0x1466 <__fp_nan>
    151c:	11 24       	eor	r1, r1
    151e:	0c 94 78 0a 	jmp	0x14f0	; 0x14f0 <__fp_szero>

00001522 <__mulsf3x>:
    1522:	0e 94 55 0a 	call	0x14aa	; 0x14aa <__fp_split3>
    1526:	70 f3       	brcs	.-36     	; 0x1504 <__mulsf3+0x8>

00001528 <__mulsf3_pse>:
    1528:	95 9f       	mul	r25, r21
    152a:	c1 f3       	breq	.-16     	; 0x151c <__mulsf3+0x20>
    152c:	95 0f       	add	r25, r21
    152e:	50 e0       	ldi	r21, 0x00	; 0
    1530:	55 1f       	adc	r21, r21
    1532:	62 9f       	mul	r22, r18
    1534:	f0 01       	movw	r30, r0
    1536:	72 9f       	mul	r23, r18
    1538:	bb 27       	eor	r27, r27
    153a:	f0 0d       	add	r31, r0
    153c:	b1 1d       	adc	r27, r1
    153e:	63 9f       	mul	r22, r19
    1540:	aa 27       	eor	r26, r26
    1542:	f0 0d       	add	r31, r0
    1544:	b1 1d       	adc	r27, r1
    1546:	aa 1f       	adc	r26, r26
    1548:	64 9f       	mul	r22, r20
    154a:	66 27       	eor	r22, r22
    154c:	b0 0d       	add	r27, r0
    154e:	a1 1d       	adc	r26, r1
    1550:	66 1f       	adc	r22, r22
    1552:	82 9f       	mul	r24, r18
    1554:	22 27       	eor	r18, r18
    1556:	b0 0d       	add	r27, r0
    1558:	a1 1d       	adc	r26, r1
    155a:	62 1f       	adc	r22, r18
    155c:	73 9f       	mul	r23, r19
    155e:	b0 0d       	add	r27, r0
    1560:	a1 1d       	adc	r26, r1
    1562:	62 1f       	adc	r22, r18
    1564:	83 9f       	mul	r24, r19
    1566:	a0 0d       	add	r26, r0
    1568:	61 1d       	adc	r22, r1
    156a:	22 1f       	adc	r18, r18
    156c:	74 9f       	mul	r23, r20
    156e:	33 27       	eor	r19, r19
    1570:	a0 0d       	add	r26, r0
    1572:	61 1d       	adc	r22, r1
    1574:	23 1f       	adc	r18, r19
    1576:	84 9f       	mul	r24, r20
    1578:	60 0d       	add	r22, r0
    157a:	21 1d       	adc	r18, r1
    157c:	82 2f       	mov	r24, r18
    157e:	76 2f       	mov	r23, r22
    1580:	6a 2f       	mov	r22, r26
    1582:	11 24       	eor	r1, r1
    1584:	9f 57       	subi	r25, 0x7F	; 127
    1586:	50 40       	sbci	r21, 0x00	; 0
    1588:	9a f0       	brmi	.+38     	; 0x15b0 <__mulsf3_pse+0x88>
    158a:	f1 f0       	breq	.+60     	; 0x15c8 <__mulsf3_pse+0xa0>
    158c:	88 23       	and	r24, r24
    158e:	4a f0       	brmi	.+18     	; 0x15a2 <__mulsf3_pse+0x7a>
    1590:	ee 0f       	add	r30, r30
    1592:	ff 1f       	adc	r31, r31
    1594:	bb 1f       	adc	r27, r27
    1596:	66 1f       	adc	r22, r22
    1598:	77 1f       	adc	r23, r23
    159a:	88 1f       	adc	r24, r24
    159c:	91 50       	subi	r25, 0x01	; 1
    159e:	50 40       	sbci	r21, 0x00	; 0
    15a0:	a9 f7       	brne	.-22     	; 0x158c <__mulsf3_pse+0x64>
    15a2:	9e 3f       	cpi	r25, 0xFE	; 254
    15a4:	51 05       	cpc	r21, r1
    15a6:	80 f0       	brcs	.+32     	; 0x15c8 <__mulsf3_pse+0xa0>
    15a8:	0c 94 2d 0a 	jmp	0x145a	; 0x145a <__fp_inf>
    15ac:	0c 94 78 0a 	jmp	0x14f0	; 0x14f0 <__fp_szero>
    15b0:	5f 3f       	cpi	r21, 0xFF	; 255
    15b2:	e4 f3       	brlt	.-8      	; 0x15ac <__mulsf3_pse+0x84>
    15b4:	98 3e       	cpi	r25, 0xE8	; 232
    15b6:	d4 f3       	brlt	.-12     	; 0x15ac <__mulsf3_pse+0x84>
    15b8:	86 95       	lsr	r24
    15ba:	77 95       	ror	r23
    15bc:	67 95       	ror	r22
    15be:	b7 95       	ror	r27
    15c0:	f7 95       	ror	r31
    15c2:	e7 95       	ror	r30
    15c4:	9f 5f       	subi	r25, 0xFF	; 255
    15c6:	c1 f7       	brne	.-16     	; 0x15b8 <__mulsf3_pse+0x90>
    15c8:	fe 2b       	or	r31, r30
    15ca:	88 0f       	add	r24, r24
    15cc:	91 1d       	adc	r25, r1
    15ce:	96 95       	lsr	r25
    15d0:	87 95       	ror	r24
    15d2:	97 f9       	bld	r25, 7
    15d4:	08 95       	ret

000015d6 <__divmodhi4>:
    15d6:	97 fb       	bst	r25, 7
    15d8:	07 2e       	mov	r0, r23
    15da:	16 f4       	brtc	.+4      	; 0x15e0 <__divmodhi4+0xa>
    15dc:	00 94       	com	r0
    15de:	07 d0       	rcall	.+14     	; 0x15ee <__divmodhi4_neg1>
    15e0:	77 fd       	sbrc	r23, 7
    15e2:	09 d0       	rcall	.+18     	; 0x15f6 <__divmodhi4_neg2>
    15e4:	0e 94 05 0b 	call	0x160a	; 0x160a <__udivmodhi4>
    15e8:	07 fc       	sbrc	r0, 7
    15ea:	05 d0       	rcall	.+10     	; 0x15f6 <__divmodhi4_neg2>
    15ec:	3e f4       	brtc	.+14     	; 0x15fc <__divmodhi4_exit>

000015ee <__divmodhi4_neg1>:
    15ee:	90 95       	com	r25
    15f0:	81 95       	neg	r24
    15f2:	9f 4f       	sbci	r25, 0xFF	; 255
    15f4:	08 95       	ret

000015f6 <__divmodhi4_neg2>:
    15f6:	70 95       	com	r23
    15f8:	61 95       	neg	r22
    15fa:	7f 4f       	sbci	r23, 0xFF	; 255

000015fc <__divmodhi4_exit>:
    15fc:	08 95       	ret

000015fe <__tablejump2__>:
    15fe:	ee 0f       	add	r30, r30
    1600:	ff 1f       	adc	r31, r31
    1602:	05 90       	lpm	r0, Z+
    1604:	f4 91       	lpm	r31, Z
    1606:	e0 2d       	mov	r30, r0
    1608:	09 94       	ijmp

0000160a <__udivmodhi4>:
    160a:	aa 1b       	sub	r26, r26
    160c:	bb 1b       	sub	r27, r27
    160e:	51 e1       	ldi	r21, 0x11	; 17
    1610:	07 c0       	rjmp	.+14     	; 0x1620 <__udivmodhi4_ep>

00001612 <__udivmodhi4_loop>:
    1612:	aa 1f       	adc	r26, r26
    1614:	bb 1f       	adc	r27, r27
    1616:	a6 17       	cp	r26, r22
    1618:	b7 07       	cpc	r27, r23
    161a:	10 f0       	brcs	.+4      	; 0x1620 <__udivmodhi4_ep>
    161c:	a6 1b       	sub	r26, r22
    161e:	b7 0b       	sbc	r27, r23

00001620 <__udivmodhi4_ep>:
    1620:	88 1f       	adc	r24, r24
    1622:	99 1f       	adc	r25, r25
    1624:	5a 95       	dec	r21
    1626:	a9 f7       	brne	.-22     	; 0x1612 <__udivmodhi4_loop>
    1628:	80 95       	com	r24
    162a:	90 95       	com	r25
    162c:	bc 01       	movw	r22, r24
    162e:	cd 01       	movw	r24, r26
    1630:	08 95       	ret

00001632 <strcat>:
    1632:	fb 01       	movw	r30, r22
    1634:	dc 01       	movw	r26, r24
    1636:	0d 90       	ld	r0, X+
    1638:	00 20       	and	r0, r0
    163a:	e9 f7       	brne	.-6      	; 0x1636 <strcat+0x4>
    163c:	11 97       	sbiw	r26, 0x01	; 1
    163e:	01 90       	ld	r0, Z+
    1640:	0d 92       	st	X+, r0
    1642:	00 20       	and	r0, r0
    1644:	e1 f7       	brne	.-8      	; 0x163e <strcat+0xc>
    1646:	08 95       	ret

00001648 <strcpy>:
    1648:	fb 01       	movw	r30, r22
    164a:	dc 01       	movw	r26, r24
    164c:	01 90       	ld	r0, Z+
    164e:	0d 92       	st	X+, r0
    1650:	00 20       	and	r0, r0
    1652:	e1 f7       	brne	.-8      	; 0x164c <strcpy+0x4>
    1654:	08 95       	ret

00001656 <eeprom_read_byte>:
    1656:	e1 99       	sbic	0x1c, 1	; 28
    1658:	fe cf       	rjmp	.-4      	; 0x1656 <eeprom_read_byte>
    165a:	9f bb       	out	0x1f, r25	; 31
    165c:	8e bb       	out	0x1e, r24	; 30
    165e:	e0 9a       	sbi	0x1c, 0	; 28
    1660:	99 27       	eor	r25, r25
    1662:	8d b3       	in	r24, 0x1d	; 29
    1664:	08 95       	ret

00001666 <eeprom_write_byte>:
    1666:	26 2f       	mov	r18, r22

00001668 <eeprom_write_r18>:
    1668:	e1 99       	sbic	0x1c, 1	; 28
    166a:	fe cf       	rjmp	.-4      	; 0x1668 <eeprom_write_r18>
    166c:	9f bb       	out	0x1f, r25	; 31
    166e:	8e bb       	out	0x1e, r24	; 30
    1670:	2d bb       	out	0x1d, r18	; 29
    1672:	0f b6       	in	r0, 0x3f	; 63
    1674:	f8 94       	cli
    1676:	e2 9a       	sbi	0x1c, 2	; 28
    1678:	e1 9a       	sbi	0x1c, 1	; 28
    167a:	0f be       	out	0x3f, r0	; 63
    167c:	01 96       	adiw	r24, 0x01	; 1
    167e:	08 95       	ret

00001680 <_exit>:
    1680:	f8 94       	cli

00001682 <__stop_program>:
    1682:	ff cf       	rjmp	.-2      	; 0x1682 <__stop_program>
