
DevBoard_7Segment.elf:     file format elf32-avr

Sections:
Idx Name          Size      VMA       LMA       File off  Algn
  0 .text         0000138e  00000000  00000000  000000b4  2**1
                  CONTENTS, ALLOC, LOAD, READONLY, CODE
  1 .data         00000192  00800060  0000138e  00001442  2**0
                  CONTENTS, ALLOC, LOAD, DATA
  2 .bss          000000de  008001f2  008001f2  000015d4  2**0
                  ALLOC
  3 .eeprom       00000001  00810000  00810000  000015d4  2**0
                  CONTENTS, ALLOC, LOAD, DATA
  4 .stab         00000024  00000000  00000000  000015d8  2**2
                  CONTENTS, READONLY, DEBUGGING
  5 .stabstr      0000002a  00000000  00000000  000015fc  2**0
                  CONTENTS, READONLY, DEBUGGING
  6 .comment      00000030  00000000  00000000  00001626  2**0
                  CONTENTS, READONLY
  7 .note.gnu.avr.deviceinfo 0000003c  00000000  00000000  00001658  2**2
                  CONTENTS, READONLY
  8 .debug_aranges 00000300  00000000  00000000  00001698  2**3
                  CONTENTS, READONLY, DEBUGGING
  9 .debug_info   00003718  00000000  00000000  00001998  2**0
                  CONTENTS, READONLY, DEBUGGING
 10 .debug_abbrev 00001326  00000000  00000000  000050b0  2**0
                  CONTENTS, READONLY, DEBUGGING
 11 .debug_line   0000204a  00000000  00000000  000063d6  2**0
                  CONTENTS, READONLY, DEBUGGING
 12 .debug_frame  00000710  00000000  00000000  00008420  2**2
                  CONTENTS, READONLY, DEBUGGING
 13 .debug_str    00000cf8  00000000  00000000  00008b30  2**0
                  CONTENTS, READONLY, DEBUGGING
 14 .debug_loc    0000254b  00000000  00000000  00009828  2**0
                  CONTENTS, READONLY, DEBUGGING
 15 .debug_ranges 00000340  00000000  00000000  0000bd73  2**0
                  CONTENTS, READONLY, DEBUGGING

Disassembly of section .text:

00000000 <__vectors>:
       0:	0c 94 4e 00 	jmp	0x9c	; 0x9c <__ctors_end>
       4:	0c 94 6b 00 	jmp	0xd6	; 0xd6 <__bad_interrupt>
       8:	0c 94 6b 00 	jmp	0xd6	; 0xd6 <__bad_interrupt>
       c:	0c 94 6b 00 	jmp	0xd6	; 0xd6 <__bad_interrupt>
      10:	0c 94 6b 00 	jmp	0xd6	; 0xd6 <__bad_interrupt>
      14:	0c 94 6b 00 	jmp	0xd6	; 0xd6 <__bad_interrupt>
      18:	0c 94 6b 00 	jmp	0xd6	; 0xd6 <__bad_interrupt>
      1c:	0c 94 6e 08 	jmp	0x10dc	; 0x10dc <__vector_7>
      20:	0c 94 6b 00 	jmp	0xd6	; 0xd6 <__bad_interrupt>
      24:	0c 94 6b 00 	jmp	0xd6	; 0xd6 <__bad_interrupt>
      28:	0c 94 6b 00 	jmp	0xd6	; 0xd6 <__bad_interrupt>
      2c:	0c 94 6b 00 	jmp	0xd6	; 0xd6 <__bad_interrupt>
      30:	0c 94 6b 00 	jmp	0xd6	; 0xd6 <__bad_interrupt>
      34:	0c 94 70 04 	jmp	0x8e0	; 0x8e0 <__vector_13>
      38:	0c 94 9c 04 	jmp	0x938	; 0x938 <__vector_14>
      3c:	0c 94 6b 00 	jmp	0xd6	; 0xd6 <__bad_interrupt>
      40:	0c 94 6b 00 	jmp	0xd6	; 0xd6 <__bad_interrupt>
      44:	0c 94 6b 00 	jmp	0xd6	; 0xd6 <__bad_interrupt>
      48:	0c 94 6b 00 	jmp	0xd6	; 0xd6 <__bad_interrupt>
      4c:	0c 94 6b 00 	jmp	0xd6	; 0xd6 <__bad_interrupt>
      50:	0c 94 6b 00 	jmp	0xd6	; 0xd6 <__bad_interrupt>
      54:	d7 02       	muls	r29, r23
      56:	02 03       	mulsu	r16, r18
      58:	02 03       	mulsu	r16, r18
      5a:	02 03       	mulsu	r16, r18
      5c:	02 03       	mulsu	r16, r18
      5e:	dd 02       	muls	r29, r29
      60:	02 03       	mulsu	r16, r18
      62:	02 03       	mulsu	r16, r18
      64:	02 03       	mulsu	r16, r18
      66:	02 03       	mulsu	r16, r18
      68:	e2 02       	muls	r30, r18
      6a:	02 03       	mulsu	r16, r18
      6c:	02 03       	mulsu	r16, r18
      6e:	02 03       	mulsu	r16, r18
      70:	02 03       	mulsu	r16, r18
      72:	e8 02       	muls	r30, r24
      74:	02 03       	mulsu	r16, r18
      76:	02 03       	mulsu	r16, r18
      78:	02 03       	mulsu	r16, r18
      7a:	02 03       	mulsu	r16, r18
      7c:	ed 02       	muls	r30, r29
      7e:	02 03       	mulsu	r16, r18
      80:	02 03       	mulsu	r16, r18
      82:	02 03       	mulsu	r16, r18
      84:	02 03       	mulsu	r16, r18
      86:	f3 02       	muls	r31, r19
      88:	02 03       	mulsu	r16, r18
      8a:	02 03       	mulsu	r16, r18
      8c:	02 03       	mulsu	r16, r18
      8e:	02 03       	mulsu	r16, r18
      90:	f8 02       	muls	r31, r24
      92:	02 03       	mulsu	r16, r18
      94:	02 03       	mulsu	r16, r18
      96:	02 03       	mulsu	r16, r18
      98:	02 03       	mulsu	r16, r18
      9a:	fe 02       	muls	r31, r30

0000009c <__ctors_end>:
      9c:	11 24       	eor	r1, r1
      9e:	1f be       	out	0x3f, r1	; 63
      a0:	cf e5       	ldi	r28, 0x5F	; 95
      a2:	d8 e0       	ldi	r29, 0x08	; 8
      a4:	de bf       	out	0x3e, r29	; 62
      a6:	cd bf       	out	0x3d, r28	; 61

000000a8 <__do_copy_data>:
      a8:	11 e0       	ldi	r17, 0x01	; 1
      aa:	a0 e6       	ldi	r26, 0x60	; 96
      ac:	b0 e0       	ldi	r27, 0x00	; 0
      ae:	ee e8       	ldi	r30, 0x8E	; 142
      b0:	f3 e1       	ldi	r31, 0x13	; 19
      b2:	02 c0       	rjmp	.+4      	; 0xb8 <__do_copy_data+0x10>
      b4:	05 90       	lpm	r0, Z+
      b6:	0d 92       	st	X+, r0
      b8:	a2 3f       	cpi	r26, 0xF2	; 242
      ba:	b1 07       	cpc	r27, r17
      bc:	d9 f7       	brne	.-10     	; 0xb4 <__do_copy_data+0xc>

000000be <__do_clear_bss>:
      be:	22 e0       	ldi	r18, 0x02	; 2
      c0:	a2 ef       	ldi	r26, 0xF2	; 242
      c2:	b1 e0       	ldi	r27, 0x01	; 1
      c4:	01 c0       	rjmp	.+2      	; 0xc8 <.do_clear_bss_start>

000000c6 <.do_clear_bss_loop>:
      c6:	1d 92       	st	X+, r1

000000c8 <.do_clear_bss_start>:
      c8:	a0 3d       	cpi	r26, 0xD0	; 208
      ca:	b2 07       	cpc	r27, r18
      cc:	e1 f7       	brne	.-8      	; 0xc6 <.do_clear_bss_loop>
      ce:	0e 94 e4 07 	call	0xfc8	; 0xfc8 <main>
      d2:	0c 94 c5 09 	jmp	0x138a	; 0x138a <_exit>

000000d6 <__bad_interrupt>:
      d6:	0c 94 00 00 	jmp	0	; 0x0 <__vectors>

000000da <i2c_delay_T2>:
;*************************************************************************
	.stabs	"",100,0,0,i2c_delay_T2
	.stabs	"i2cmaster.S",100,0,0,i2c_delay_T2
	.func i2c_delay_T2	; delay 5.0 microsec with 4 Mhz crystal	
i2c_delay_T2:        ; 4 cycles
	rjmp 1f      ; 2   "
      da:	00 c0       	rjmp	.+0      	; 0xdc <i2c_delay_T2+0x2>
1:	rjmp 2f      ; 2   "
      dc:	00 c0       	rjmp	.+0      	; 0xde <i2c_delay_T2+0x4>
2:	rjmp 3f      ; 2   "
      de:	00 c0       	rjmp	.+0      	; 0xe0 <i2c_delay_T2+0x6>
3:	rjmp 4f      ; 2   "
      e0:	00 c0       	rjmp	.+0      	; 0xe2 <i2c_delay_T2+0x8>
4:	rjmp 5f      ; 2   "
      e2:	00 c0       	rjmp	.+0      	; 0xe4 <i2c_delay_T2+0xa>
5: 	rjmp 6f      ; 2   "
      e4:	00 c0       	rjmp	.+0      	; 0xe6 <i2c_delay_T2+0xc>
6:	nop          ; 1   "
      e6:	00 00       	nop
	ret          ; 3   "
      e8:	08 95       	ret

000000ea <i2c_init>:
; extern void i2c_init(void)
;*************************************************************************
	.global i2c_init
	.func i2c_init
i2c_init:
	cbi SDA_DDR,SDA		;release SDA
      ea:	a1 98       	cbi	0x14, 1	; 20
	cbi SCL_DDR,SCL		;release SCL
      ec:	a0 98       	cbi	0x14, 0	; 20
	cbi SDA_OUT,SDA
      ee:	a9 98       	cbi	0x15, 1	; 21
	cbi SCL_OUT,SCL
      f0:	a8 98       	cbi	0x15, 0	; 21
	ret
      f2:	08 95       	ret

000000f4 <i2c_start>:
;*************************************************************************

	.global i2c_start
	.func   i2c_start
i2c_start:
	sbi 	SDA_DDR,SDA	;force SDA low
      f4:	a1 9a       	sbi	0x14, 1	; 20
	rcall 	i2c_delay_T2	;delay T/2
      f6:	f1 df       	rcall	.-30     	; 0xda <i2c_delay_T2>
	
	rcall 	i2c_write	;write address
      f8:	1d d0       	rcall	.+58     	; 0x134 <i2c_write>
	ret
      fa:	08 95       	ret

000000fc <i2c_rep_start>:
;*************************************************************************

	.global i2c_rep_start
	.func	i2c_rep_start
i2c_rep_start:
	sbi	SCL_DDR,SCL	;force SCL low
      fc:	a0 9a       	sbi	0x14, 0	; 20
	rcall 	i2c_delay_T2	;delay  T/2
      fe:	ed df       	rcall	.-38     	; 0xda <i2c_delay_T2>
	cbi	SDA_DDR,SDA	;release SDA
     100:	a1 98       	cbi	0x14, 1	; 20
	rcall	i2c_delay_T2	;delay T/2
     102:	eb df       	rcall	.-42     	; 0xda <i2c_delay_T2>
	cbi	SCL_DDR,SCL	;release SCL
     104:	a0 98       	cbi	0x14, 0	; 20
	rcall 	i2c_delay_T2	;delay  T/2
     106:	e9 df       	rcall	.-46     	; 0xda <i2c_delay_T2>
	sbi 	SDA_DDR,SDA	;force SDA low
     108:	a1 9a       	sbi	0x14, 1	; 20
	rcall 	i2c_delay_T2	;delay	T/2
     10a:	e7 df       	rcall	.-50     	; 0xda <i2c_delay_T2>
	
	rcall	i2c_write	;write address
     10c:	13 d0       	rcall	.+38     	; 0x134 <i2c_write>
	ret
     10e:	08 95       	ret

00000110 <i2c_start_wait>:
;*************************************************************************

	.global i2c_start_wait
	.func   i2c_start_wait
i2c_start_wait:
	mov	__tmp_reg__,r24
     110:	08 2e       	mov	r0, r24

00000112 <i2c_start_wait1>:
i2c_start_wait1:
	sbi 	SDA_DDR,SDA	;force SDA low
     112:	a1 9a       	sbi	0x14, 1	; 20
	rcall 	i2c_delay_T2	;delay T/2
     114:	e2 df       	rcall	.-60     	; 0xda <i2c_delay_T2>
	mov	r24,__tmp_reg__
     116:	80 2d       	mov	r24, r0
	rcall 	i2c_write	;write address
     118:	0d d0       	rcall	.+26     	; 0x134 <i2c_write>
	tst	r24		;if device not busy -> done
     11a:	88 23       	and	r24, r24
	breq	i2c_start_wait_done
     11c:	11 f0       	breq	.+4      	; 0x122 <i2c_start_wait_done>
	rcall	i2c_stop	;terminate write operation
     11e:	02 d0       	rcall	.+4      	; 0x124 <i2c_stop>
	rjmp	i2c_start_wait1	;device busy, poll ack again
     120:	f8 cf       	rjmp	.-16     	; 0x112 <i2c_start_wait1>

00000122 <i2c_start_wait_done>:
i2c_start_wait_done:
	ret
     122:	08 95       	ret

00000124 <i2c_stop>:
;*************************************************************************

	.global	i2c_stop
	.func	i2c_stop
i2c_stop:
	sbi	SCL_DDR,SCL	;force SCL low
     124:	a0 9a       	sbi	0x14, 0	; 20
	sbi	SDA_DDR,SDA	;force SDA low
     126:	a1 9a       	sbi	0x14, 1	; 20
	rcall	i2c_delay_T2	;delay T/2
     128:	d8 df       	rcall	.-80     	; 0xda <i2c_delay_T2>
	cbi	SCL_DDR,SCL	;release SCL
     12a:	a0 98       	cbi	0x14, 0	; 20
	rcall	i2c_delay_T2	;delay T/2
     12c:	d6 df       	rcall	.-84     	; 0xda <i2c_delay_T2>
	cbi	SDA_DDR,SDA	;release SDA
     12e:	a1 98       	cbi	0x14, 1	; 20
	rcall	i2c_delay_T2	;delay T/2
     130:	d4 df       	rcall	.-88     	; 0xda <i2c_delay_T2>
	ret
     132:	08 95       	ret

00000134 <i2c_write>:
;	data = r24,  return = r25(=0):r24
;*************************************************************************
	.global i2c_write
	.func	i2c_write
i2c_write:
	sec			;set carry flag
     134:	08 94       	sec
	rol 	r24		;shift in carry and out bit one
     136:	88 1f       	adc	r24, r24
	rjmp	i2c_write_first
     138:	01 c0       	rjmp	.+2      	; 0x13c <i2c_write_first>

0000013a <i2c_write_bit>:
i2c_write_bit:
	lsl	r24		;if transmit register empty
     13a:	88 0f       	add	r24, r24

0000013c <i2c_write_first>:
i2c_write_first:
	breq	i2c_get_ack
     13c:	59 f0       	breq	.+22     	; 0x154 <i2c_get_ack>
	sbi	SCL_DDR,SCL	;force SCL low
     13e:	a0 9a       	sbi	0x14, 0	; 20
	brcc	i2c_write_low
     140:	18 f4       	brcc	.+6      	; 0x148 <i2c_write_low>
	nop
     142:	00 00       	nop
	cbi	SDA_DDR,SDA	;release SDA
     144:	a1 98       	cbi	0x14, 1	; 20
	rjmp	i2c_write_high
     146:	02 c0       	rjmp	.+4      	; 0x14c <i2c_write_high>

00000148 <i2c_write_low>:
i2c_write_low:
	sbi	SDA_DDR,SDA	;force SDA low
     148:	a1 9a       	sbi	0x14, 1	; 20
	rjmp	i2c_write_high
     14a:	00 c0       	rjmp	.+0      	; 0x14c <i2c_write_high>

0000014c <i2c_write_high>:
i2c_write_high:
	rcall 	i2c_delay_T2	;delay T/2
     14c:	c6 df       	rcall	.-116    	; 0xda <i2c_delay_T2>
	cbi	SCL_DDR,SCL	;release SCL
     14e:	a0 98       	cbi	0x14, 0	; 20
	rcall	i2c_delay_T2	;delay T/2
     150:	c4 df       	rcall	.-120    	; 0xda <i2c_delay_T2>
	rjmp	i2c_write_bit
     152:	f3 cf       	rjmp	.-26     	; 0x13a <i2c_write_bit>

00000154 <i2c_get_ack>:
	
i2c_get_ack:
	sbi	SCL_DDR,SCL	;force SCL low
     154:	a0 9a       	sbi	0x14, 0	; 20
	cbi	SDA_DDR,SDA	;release SDA
     156:	a1 98       	cbi	0x14, 1	; 20
	rcall	i2c_delay_T2	;delay T/2
     158:	c0 df       	rcall	.-128    	; 0xda <i2c_delay_T2>
	cbi	SCL_DDR,SCL	;release SCL
     15a:	a0 98       	cbi	0x14, 0	; 20

0000015c <i2c_ack_wait>:
i2c_ack_wait:
	sbis	SCL_IN,SCL	;wait SCL high (in case wait states are inserted)
     15c:	98 9b       	sbis	0x13, 0	; 19
	rjmp	i2c_ack_wait
     15e:	fe cf       	rjmp	.-4      	; 0x15c <i2c_ack_wait>
	
	clr	r24		;return 0
     160:	88 27       	eor	r24, r24
	sbic	SDA_IN,SDA	;if SDA high -> return 1
     162:	99 99       	sbic	0x13, 1	; 19
	ldi	r24,1
     164:	81 e0       	ldi	r24, 0x01	; 1
	rcall	i2c_delay_T2	;delay T/2
     166:	b9 df       	rcall	.-142    	; 0xda <i2c_delay_T2>
	clr	r25
     168:	99 27       	eor	r25, r25
	ret
     16a:	08 95       	ret

0000016c <i2c_readNak>:
	.global i2c_readAck
	.global i2c_readNak
	.global i2c_read		
	.func	i2c_read
i2c_readNak:
	clr	r24
     16c:	88 27       	eor	r24, r24
	rjmp	i2c_read
     16e:	01 c0       	rjmp	.+2      	; 0x172 <i2c_read>

00000170 <i2c_readAck>:
i2c_readAck:
	ldi	r24,0x01
     170:	81 e0       	ldi	r24, 0x01	; 1

00000172 <i2c_read>:
i2c_read:
	ldi	r23,0x01	;data = 0x01
     172:	71 e0       	ldi	r23, 0x01	; 1

00000174 <i2c_read_bit>:
i2c_read_bit:
	sbi	SCL_DDR,SCL	;force SCL low
     174:	a0 9a       	sbi	0x14, 0	; 20
	cbi	SDA_DDR,SDA	;release SDA (from previous ACK)
     176:	a1 98       	cbi	0x14, 1	; 20
	rcall	i2c_delay_T2	;delay T/2
     178:	b0 df       	rcall	.-160    	; 0xda <i2c_delay_T2>
	
	cbi	SCL_DDR,SCL	;release SCL
     17a:	a0 98       	cbi	0x14, 0	; 20
	rcall	i2c_delay_T2	;delay T/2
     17c:	ae df       	rcall	.-164    	; 0xda <i2c_delay_T2>

0000017e <i2c_read_stretch>:
	
i2c_read_stretch:
    sbis SCL_IN, SCL        ;loop until SCL is high (allow slave to stretch SCL)
     17e:	98 9b       	sbis	0x13, 0	; 19
    rjmp	i2c_read_stretch
     180:	fe cf       	rjmp	.-4      	; 0x17e <i2c_read_stretch>
    	
	clc			;clear carry flag
     182:	88 94       	clc
	sbic	SDA_IN,SDA	;if SDA is high
     184:	99 99       	sbic	0x13, 1	; 19
	sec			;  set carry flag
     186:	08 94       	sec
	
	rol	r23		;store bit
     188:	77 1f       	adc	r23, r23
	brcc	i2c_read_bit	;while receive register not full
     18a:	a0 f7       	brcc	.-24     	; 0x174 <i2c_read_bit>

0000018c <i2c_put_ack>:
	
i2c_put_ack:
	sbi	SCL_DDR,SCL	;force SCL low	
     18c:	a0 9a       	sbi	0x14, 0	; 20
	cpi	r24,1
     18e:	81 30       	cpi	r24, 0x01	; 1
	breq	i2c_put_ack_low	;if (ack=0)
     190:	11 f0       	breq	.+4      	; 0x196 <i2c_put_ack_low>
	cbi	SDA_DDR,SDA	;      release SDA
     192:	a1 98       	cbi	0x14, 1	; 20
	rjmp	i2c_put_ack_high
     194:	01 c0       	rjmp	.+2      	; 0x198 <i2c_put_ack_high>

00000196 <i2c_put_ack_low>:
i2c_put_ack_low:                ;else
	sbi	SDA_DDR,SDA	;      force SDA low
     196:	a1 9a       	sbi	0x14, 1	; 20

00000198 <i2c_put_ack_high>:
i2c_put_ack_high:
	rcall	i2c_delay_T2	;delay T/2
     198:	a0 df       	rcall	.-192    	; 0xda <i2c_delay_T2>
	cbi	SCL_DDR,SCL	;release SCL
     19a:	a0 98       	cbi	0x14, 0	; 20

0000019c <i2c_put_ack_wait>:
i2c_put_ack_wait:
	sbis	SCL_IN,SCL	;wait SCL high
     19c:	98 9b       	sbis	0x13, 0	; 19
	rjmp	i2c_put_ack_wait
     19e:	fe cf       	rjmp	.-4      	; 0x19c <i2c_put_ack_wait>
	rcall	i2c_delay_T2	;delay T/2
     1a0:	9c df       	rcall	.-200    	; 0xda <i2c_delay_T2>
	mov	r24,r23
     1a2:	87 2f       	mov	r24, r23
	clr	r25
     1a4:	99 27       	eor	r25, r25
	ret
     1a6:	08 95       	ret

000001a8 <buildVer>:
	static char build[] = "000000000000000000000000";
	
	/*
	*	major and minor version
	*/
	build[0] = verMajor;
     1a8:	e0 e6       	ldi	r30, 0x60	; 96
     1aa:	f0 e0       	ldi	r31, 0x00	; 0
     1ac:	41 e3       	ldi	r20, 0x31	; 49
     1ae:	40 83       	st	Z, r20
	build[1] = '.';
     1b0:	2e e2       	ldi	r18, 0x2E	; 46
     1b2:	21 83       	std	Z+1, r18	; 0x01
	build[2] = ' ';
     1b4:	90 e2       	ldi	r25, 0x20	; 32
     1b6:	92 83       	std	Z+2, r25	; 0x02
	build[3] = verMinor;
     1b8:	80 e3       	ldi	r24, 0x30	; 48
     1ba:	83 83       	std	Z+3, r24	; 0x03
	build[4] = '.';
     1bc:	24 83       	std	Z+4, r18	; 0x04
	build[5] = ' ';
     1be:	95 83       	std	Z+5, r25	; 0x05
	
	/*
	*	Fehlerkorrekturen
	*/
	build[6] = ( ( FEHLERKORREKTUR / 10000 )	% 10 )	+ '0';
     1c0:	86 83       	std	Z+6, r24	; 0x06
	build[7] = ( ( FEHLERKORREKTUR / 1000 )		% 10 )	+ '0';
     1c2:	87 83       	std	Z+7, r24	; 0x07
	build[8] = ( ( FEHLERKORREKTUR / 100 )		% 10 )	+ '0';
     1c4:	80 87       	std	Z+8, r24	; 0x08
	build[9] = ( ( FEHLERKORREKTUR / 10 )		% 10 )	+ '0';
     1c6:	81 87       	std	Z+9, r24	; 0x09
	build[10] = (   FEHLERKORREKTUR % 10 )				+ '0';
     1c8:	82 87       	std	Z+10, r24	; 0x0a
	build[11] = '.';
     1ca:	23 87       	std	Z+11, r18	; 0x0b
	build[12] = ' ';
     1cc:	94 87       	std	Z+12, r25	; 0x0c
	
	/*
	*	time.: hour|min
	*/
	build[13] = __TIME__[0];
     1ce:	85 87       	std	Z+13, r24	; 0x0d
	build[14] = __TIME__[1];
     1d0:	37 e3       	ldi	r19, 0x37	; 55
     1d2:	36 87       	std	Z+14, r19	; 0x0e
	build[15] = __TIME__[3];
     1d4:	47 87       	std	Z+15, r20	; 0x0f
	build[16] = __TIME__[4];
     1d6:	44 e3       	ldi	r20, 0x34	; 52
     1d8:	40 8b       	std	Z+16, r20	; 0x10
	
	build[17] = '.';
     1da:	21 8b       	std	Z+17, r18	; 0x11
	build[18] = ' ';
     1dc:	92 8b       	std	Z+18, r25	; 0x12
	
	/*
	*	day
	*/
	build[19] = ((__DATE__[4] >= '0') ? (__DATE__[4]) : '0');
     1de:	83 8b       	std	Z+19, r24	; 0x13
	build[20] = (__DATE__[ 5]);
     1e0:	34 8b       	std	Z+20, r19	; 0x14
	
	if(__DATE__[0] == 'J' && __DATE__[1] == 'u' && __DATE__[2] == 'l')
	build[21] = '7'; // Juli
	
	if(__DATE__[0] == 'A' && __DATE__[1] == 'u')
	build[21] = '8'; // August
     1e2:	88 e3       	ldi	r24, 0x38	; 56
     1e4:	85 8b       	std	Z+21, r24	; 0x15
	if(__DATE__[0] == 'D'){
		build[21] = '1';
		build[22] = '2'; // Dezember
	}

	build[23] = '\0';
     1e6:	17 8a       	std	Z+23, r1	; 0x17
	
	return build;
}
     1e8:	cf 01       	movw	r24, r30
     1ea:	08 95       	ret

000001ec <cmdSearch>:
	{
		return cmd->table[i].instruction;
	}
	
	return NULL;
}
     1ec:	0f 93       	push	r16
     1ee:	1f 93       	push	r17
     1f0:	cf 93       	push	r28
     1f2:	df 93       	push	r29
     1f4:	00 97       	sbiw	r24, 0x00	; 0
     1f6:	91 f0       	breq	.+36     	; 0x21c <cmdSearch+0x30>
     1f8:	61 15       	cp	r22, r1
     1fa:	71 05       	cpc	r23, r1
     1fc:	91 f0       	breq	.+36     	; 0x222 <cmdSearch+0x36>
     1fe:	ec 01       	movw	r28, r24
     200:	0e 94 3a 09 	call	0x1274	; 0x1274 <strstr>
     204:	08 2f       	mov	r16, r24
     206:	19 2f       	mov	r17, r25
     208:	6b e3       	ldi	r22, 0x3B	; 59
     20a:	70 e0       	ldi	r23, 0x00	; 0
     20c:	ce 01       	movw	r24, r28
     20e:	0e 94 28 09 	call	0x1250	; 0x1250 <strchr>
     212:	89 2b       	or	r24, r25
     214:	49 f0       	breq	.+18     	; 0x228 <cmdSearch+0x3c>
     216:	80 2f       	mov	r24, r16
     218:	91 2f       	mov	r25, r17
     21a:	08 c0       	rjmp	.+16     	; 0x22c <cmdSearch+0x40>
     21c:	80 e0       	ldi	r24, 0x00	; 0
     21e:	90 e0       	ldi	r25, 0x00	; 0
     220:	05 c0       	rjmp	.+10     	; 0x22c <cmdSearch+0x40>
     222:	80 e0       	ldi	r24, 0x00	; 0
     224:	90 e0       	ldi	r25, 0x00	; 0
     226:	02 c0       	rjmp	.+4      	; 0x22c <cmdSearch+0x40>
     228:	80 e0       	ldi	r24, 0x00	; 0
     22a:	90 e0       	ldi	r25, 0x00	; 0
     22c:	df 91       	pop	r29
     22e:	cf 91       	pop	r28
     230:	1f 91       	pop	r17
     232:	0f 91       	pop	r16
     234:	08 95       	ret

00000236 <cmdGetIndex>:
     236:	cf 92       	push	r12
     238:	df 92       	push	r13
     23a:	ef 92       	push	r14
     23c:	ff 92       	push	r15
     23e:	0f 93       	push	r16
     240:	1f 93       	push	r17
     242:	cf 93       	push	r28
     244:	df 93       	push	r29
     246:	fc 01       	movw	r30, r24
     248:	02 81       	ldd	r16, Z+2	; 0x02
     24a:	13 81       	ldd	r17, Z+3	; 0x03
     24c:	01 15       	cp	r16, r1
     24e:	11 05       	cpc	r17, r1
     250:	11 f1       	breq	.+68     	; 0x296 <cmdGetIndex+0x60>
     252:	eb 01       	movw	r28, r22
     254:	e0 80       	ld	r14, Z
     256:	f1 80       	ldd	r15, Z+1	; 0x01
     258:	80 e0       	ldi	r24, 0x00	; 0
     25a:	90 e0       	ldi	r25, 0x00	; 0
     25c:	d1 2c       	mov	r13, r1
     25e:	0f 2e       	mov	r0, r31
     260:	f5 e2       	ldi	r31, 0x25	; 37
     262:	cf 2e       	mov	r12, r31
     264:	f0 2d       	mov	r31, r0
     266:	c8 9e       	mul	r12, r24
     268:	b0 01       	movw	r22, r0
     26a:	c9 9e       	mul	r12, r25
     26c:	70 0d       	add	r23, r0
     26e:	11 24       	eor	r1, r1
     270:	6e 0d       	add	r22, r14
     272:	7f 1d       	adc	r23, r15
     274:	6c 5e       	subi	r22, 0xEC	; 236
     276:	7f 4f       	sbci	r23, 0xFF	; 255
     278:	ce 01       	movw	r24, r28
     27a:	0e 94 f6 00 	call	0x1ec	; 0x1ec <cmdSearch>
     27e:	89 2b       	or	r24, r25
     280:	11 f0       	breq	.+4      	; 0x286 <cmdGetIndex+0x50>
     282:	8d 2d       	mov	r24, r13
     284:	09 c0       	rjmp	.+18     	; 0x298 <cmdGetIndex+0x62>
     286:	d3 94       	inc	r13
     288:	8d 2d       	mov	r24, r13
     28a:	90 e0       	ldi	r25, 0x00	; 0
     28c:	80 17       	cp	r24, r16
     28e:	91 07       	cpc	r25, r17
     290:	50 f3       	brcs	.-44     	; 0x266 <cmdGetIndex+0x30>
     292:	8f ef       	ldi	r24, 0xFF	; 255
     294:	01 c0       	rjmp	.+2      	; 0x298 <cmdGetIndex+0x62>
     296:	8f ef       	ldi	r24, 0xFF	; 255
     298:	df 91       	pop	r29
     29a:	cf 91       	pop	r28
     29c:	1f 91       	pop	r17
     29e:	0f 91       	pop	r16
     2a0:	ff 90       	pop	r15
     2a2:	ef 90       	pop	r14
     2a4:	df 90       	pop	r13
     2a6:	cf 90       	pop	r12
     2a8:	08 95       	ret

000002aa <cmdGetName>:

const char			*cmdGetName			( cmd_t *cmd , char *input )				
{
     2aa:	cf 93       	push	r28
     2ac:	df 93       	push	r29
     2ae:	ec 01       	movw	r28, r24
	int8_t ret = cmdGetIndex( cmd , input );
     2b0:	0e 94 1b 01 	call	0x236	; 0x236 <cmdGetIndex>
	
	if ( ret != (int8_t) -1 )
     2b4:	8f 3f       	cpi	r24, 0xFF	; 255
     2b6:	51 f0       	breq	.+20     	; 0x2cc <cmdGetName+0x22>
	{
		return cmd->table[ret].name;
     2b8:	28 81       	ld	r18, Y
     2ba:	39 81       	ldd	r19, Y+1	; 0x01
     2bc:	a9 01       	movw	r20, r18
     2be:	65 e2       	ldi	r22, 0x25	; 37
     2c0:	86 02       	muls	r24, r22
     2c2:	40 0d       	add	r20, r0
     2c4:	51 1d       	adc	r21, r1
     2c6:	11 24       	eor	r1, r1
     2c8:	ca 01       	movw	r24, r20
     2ca:	02 c0       	rjmp	.+4      	; 0x2d0 <cmdGetName+0x26>
	}
		
	return NULL;
     2cc:	80 e0       	ldi	r24, 0x00	; 0
     2ce:	90 e0       	ldi	r25, 0x00	; 0
}
     2d0:	df 91       	pop	r29
     2d2:	cf 91       	pop	r28
     2d4:	08 95       	ret

000002d6 <cmdGetFunc>:

void				cmdGetFunc			( cmd_t *cmd , char *input )				
{
     2d6:	cf 93       	push	r28
     2d8:	df 93       	push	r29
     2da:	ec 01       	movw	r28, r24
	int8_t ret = cmdGetIndex( cmd , input );
     2dc:	0e 94 1b 01 	call	0x236	; 0x236 <cmdGetIndex>
	if ( ret != (int8_t) -1 )
     2e0:	8f 3f       	cpi	r24, 0xFF	; 255
     2e2:	79 f0       	breq	.+30     	; 0x302 <cmdGetFunc+0x2c>
	{
		cmd->table[ret].fnc( NULL , NULL );
     2e4:	e8 81       	ld	r30, Y
     2e6:	f9 81       	ldd	r31, Y+1	; 0x01
     2e8:	95 e2       	ldi	r25, 0x25	; 37
     2ea:	89 02       	muls	r24, r25
     2ec:	e0 0d       	add	r30, r0
     2ee:	f1 1d       	adc	r31, r1
     2f0:	11 24       	eor	r1, r1
     2f2:	03 a0       	ldd	r0, Z+35	; 0x23
     2f4:	f4 a1       	ldd	r31, Z+36	; 0x24
     2f6:	e0 2d       	mov	r30, r0
     2f8:	60 e0       	ldi	r22, 0x00	; 0
     2fa:	70 e0       	ldi	r23, 0x00	; 0
     2fc:	80 e0       	ldi	r24, 0x00	; 0
     2fe:	90 e0       	ldi	r25, 0x00	; 0
     300:	09 95       	icall
	}
}
     302:	df 91       	pop	r29
     304:	cf 91       	pop	r28
     306:	08 95       	ret

00000308 <cmdGetPara>:

char 				*cmdGetPara 		( cmd_t *cmd , char *input , uint8_t num )	
{
     308:	6f 92       	push	r6
     30a:	7f 92       	push	r7
     30c:	9f 92       	push	r9
     30e:	af 92       	push	r10
     310:	bf 92       	push	r11
     312:	cf 92       	push	r12
     314:	df 92       	push	r13
     316:	ef 92       	push	r14
     318:	ff 92       	push	r15
     31a:	0f 93       	push	r16
     31c:	1f 93       	push	r17
     31e:	cf 93       	push	r28
     320:	df 93       	push	r29
	
	static char buff[20] = "";
	
	uint8_t x;
	
	for ( x = 0 ; x < cmd->tabLen ; x++ )
     322:	dc 01       	movw	r26, r24
     324:	12 96       	adiw	r26, 0x02	; 2
     326:	cd 90       	ld	r12, X+
     328:	dc 90       	ld	r13, X
     32a:	13 97       	sbiw	r26, 0x03	; 3
     32c:	c1 14       	cp	r12, r1
     32e:	d1 04       	cpc	r13, r1
     330:	09 f4       	brne	.+2      	; 0x334 <cmdGetPara+0x2c>
     332:	77 c0       	rjmp	.+238    	; 0x422 <__LOCK_REGION_LENGTH__+0x22>
     334:	d4 2f       	mov	r29, r20
     336:	3b 01       	movw	r6, r22
     338:	8c 01       	movw	r16, r24
	{
		rawPtr = ( const char *) cmdSearch( input , ( char * ) cmd->table[x].instruction );
     33a:	fc 01       	movw	r30, r24
     33c:	a0 80       	ld	r10, Z
     33e:	b1 80       	ldd	r11, Z+1	; 0x01
     340:	80 e0       	ldi	r24, 0x00	; 0
     342:	90 e0       	ldi	r25, 0x00	; 0
     344:	c0 e0       	ldi	r28, 0x00	; 0
     346:	0f 2e       	mov	r0, r31
     348:	f5 e2       	ldi	r31, 0x25	; 37
     34a:	9f 2e       	mov	r9, r31
     34c:	f0 2d       	mov	r31, r0
     34e:	98 9e       	mul	r9, r24
     350:	b0 01       	movw	r22, r0
     352:	99 9e       	mul	r9, r25
     354:	70 0d       	add	r23, r0
     356:	11 24       	eor	r1, r1
     358:	6a 0d       	add	r22, r10
     35a:	7b 1d       	adc	r23, r11
     35c:	6c 5e       	subi	r22, 0xEC	; 236
     35e:	7f 4f       	sbci	r23, 0xFF	; 255
     360:	c3 01       	movw	r24, r6
     362:	0e 94 f6 00 	call	0x1ec	; 0x1ec <cmdSearch>
     366:	7c 01       	movw	r14, r24
		if ( rawPtr != NULL )
     368:	00 97       	sbiw	r24, 0x00	; 0
     36a:	09 f0       	breq	.+2      	; 0x36e <cmdGetPara+0x66>
     36c:	63 c0       	rjmp	.+198    	; 0x434 <__LOCK_REGION_LENGTH__+0x34>
	
	static char buff[20] = "";
	
	uint8_t x;
	
	for ( x = 0 ; x < cmd->tabLen ; x++ )
     36e:	cf 5f       	subi	r28, 0xFF	; 255
     370:	8c 2f       	mov	r24, r28
     372:	90 e0       	ldi	r25, 0x00	; 0
     374:	8c 15       	cp	r24, r12
     376:	9d 05       	cpc	r25, r13
     378:	50 f3       	brcs	.-44     	; 0x34e <cmdGetPara+0x46>
		}
	}
	
	if( rawPtr == NULL )
	{
		return NULL;
     37a:	80 e0       	ldi	r24, 0x00	; 0
     37c:	90 e0       	ldi	r25, 0x00	; 0
     37e:	69 c0       	rjmp	.+210    	; 0x452 <__LOCK_REGION_LENGTH__+0x52>
// };


static uint8_t 		cmdCntPara			( char *cmd )								
{
	uint8_t x = 0;
     380:	c1 e0       	ldi	r28, 0x01	; 1
     382:	dc 01       	movw	r26, r24
     384:	11 96       	adiw	r26, 0x01	; 1
     386:	8c 91       	ld	r24, X
     388:	8b 33       	cpi	r24, 0x3B	; 59
     38a:	09 f0       	breq	.+2      	; 0x38e <cmdGetPara+0x86>
     38c:	60 c0       	rjmp	.+192    	; 0x44e <__LOCK_REGION_LENGTH__+0x4e>
     38e:	c0 e0       	ldi	r28, 0x00	; 0
     390:	5e c0       	rjmp	.+188    	; 0x44e <__LOCK_REGION_LENGTH__+0x4e>
	}
	
	for ( ; cmdPtr != NULL ;  )
	{
		cmdPtr = strchr( cmdPtr + 1 , ',' ); // weitere Parameter
		x++;
     392:	c2 2f       	mov	r28, r18
		}
	}
	
	for ( ; cmdPtr != NULL ;  )
	{
		cmdPtr = strchr( cmdPtr + 1 , ',' ); // weitere Parameter
     394:	6c e2       	ldi	r22, 0x2C	; 44
     396:	70 e0       	ldi	r23, 0x00	; 0
     398:	01 96       	adiw	r24, 0x01	; 1
     39a:	0e 94 28 09 	call	0x1250	; 0x1250 <strchr>
		x++;
     39e:	21 e0       	ldi	r18, 0x01	; 1
     3a0:	2c 0f       	add	r18, r28
		{
			x++;	
		}
	}
	
	for ( ; cmdPtr != NULL ;  )
     3a2:	00 97       	sbiw	r24, 0x00	; 0
     3a4:	b1 f7       	brne	.-20     	; 0x392 <cmdGetPara+0x8a>
	if( rawPtr == NULL )
	{
		return NULL;
	}
	
	cmd->raw->paraNumb = cmdCntPara( ( char * ) rawPtr );
     3a6:	f6 01       	movw	r30, r12
     3a8:	c2 83       	std	Z+2, r28	; 0x02
	
	cmdEndPtr = strchr( rawPtr , ';' );	
     3aa:	6b e3       	ldi	r22, 0x3B	; 59
     3ac:	70 e0       	ldi	r23, 0x00	; 0
     3ae:	c7 01       	movw	r24, r14
     3b0:	0e 94 28 09 	call	0x1250	; 0x1250 <strchr>
	if( cmdEndPtr == NULL )
     3b4:	89 2b       	or	r24, r25
     3b6:	c1 f1       	breq	.+112    	; 0x428 <__LOCK_REGION_LENGTH__+0x28>
	{
		return  NULL;
	}

	delimiter = strchr( rawPtr , ':' ) + 1;
     3b8:	6a e3       	ldi	r22, 0x3A	; 58
     3ba:	70 e0       	ldi	r23, 0x00	; 0
     3bc:	c7 01       	movw	r24, r14
     3be:	0e 94 28 09 	call	0x1250	; 0x1250 <strchr>
     3c2:	9c 01       	movw	r18, r24
     3c4:	2f 5f       	subi	r18, 0xFF	; 255
     3c6:	3f 4f       	sbci	r19, 0xFF	; 255
	if( ( delimiter - 1 ) == NULL )
     3c8:	00 97       	sbiw	r24, 0x00	; 0
     3ca:	09 f4       	brne	.+2      	; 0x3ce <cmdGetPara+0xc6>
     3cc:	42 c0       	rjmp	.+132    	; 0x452 <__LOCK_REGION_LENGTH__+0x52>
	{
		return  NULL;
	}

	delimiter = strtok( delimiter , CMD_RAW_PARA_DELIMITER );
     3ce:	67 e0       	ldi	r22, 0x07	; 7
     3d0:	71 e0       	ldi	r23, 0x01	; 1
     3d2:	c9 01       	movw	r24, r18
     3d4:	0e 94 18 09 	call	0x1230	; 0x1230 <strtok>
	if( delimiter == NULL )
     3d8:	00 97       	sbiw	r24, 0x00	; 0
     3da:	49 f1       	breq	.+82     	; 0x42e <__LOCK_REGION_LENGTH__+0x2e>
     3dc:	c0 e0       	ldi	r28, 0x00	; 0
     3de:	07 c0       	rjmp	.+14     	; 0x3ee <cmdGetPara+0xe6>
		return  NULL;
	}
	
	for ( x = 0 ; x < num || x < cmd->raw->paraNumb ; x++ )
	{
		delimiter = strtok( NULL , CMD_RAW_PARA_DELIMITER );			
     3e0:	67 e0       	ldi	r22, 0x07	; 7
     3e2:	71 e0       	ldi	r23, 0x01	; 1
     3e4:	80 e0       	ldi	r24, 0x00	; 0
     3e6:	90 e0       	ldi	r25, 0x00	; 0
     3e8:	0e 94 18 09 	call	0x1230	; 0x1230 <strtok>
	if( delimiter == NULL )
	{
		return  NULL;
	}
	
	for ( x = 0 ; x < num || x < cmd->raw->paraNumb ; x++ )
     3ec:	cf 5f       	subi	r28, 0xFF	; 255
     3ee:	cd 17       	cp	r28, r29
     3f0:	b8 f3       	brcs	.-18     	; 0x3e0 <cmdGetPara+0xd8>
     3f2:	d8 01       	movw	r26, r16
     3f4:	14 96       	adiw	r26, 0x04	; 4
     3f6:	ed 91       	ld	r30, X+
     3f8:	fc 91       	ld	r31, X
     3fa:	15 97       	sbiw	r26, 0x05	; 5
     3fc:	22 81       	ldd	r18, Z+2	; 0x02
     3fe:	c2 17       	cp	r28, r18
     400:	78 f3       	brcs	.-34     	; 0x3e0 <cmdGetPara+0xd8>
	{
		delimiter = strtok( NULL , CMD_RAW_PARA_DELIMITER );			
	}
	
	strcpy( buff , delimiter );
     402:	bc 01       	movw	r22, r24
     404:	84 ef       	ldi	r24, 0xF4	; 244
     406:	91 e0       	ldi	r25, 0x01	; 1
     408:	0e 94 33 09 	call	0x1266	; 0x1266 <strcpy>
	char *ptr = strchr( buff , ';' );
     40c:	6b e3       	ldi	r22, 0x3B	; 59
     40e:	70 e0       	ldi	r23, 0x00	; 0
     410:	84 ef       	ldi	r24, 0xF4	; 244
     412:	91 e0       	ldi	r25, 0x01	; 1
     414:	0e 94 28 09 	call	0x1250	; 0x1250 <strchr>
	*ptr = '\0';
     418:	fc 01       	movw	r30, r24
     41a:	10 82       	st	Z, r1
	
	return buff; 
     41c:	84 ef       	ldi	r24, 0xF4	; 244
     41e:	91 e0       	ldi	r25, 0x01	; 1
     420:	18 c0       	rjmp	.+48     	; 0x452 <__LOCK_REGION_LENGTH__+0x52>
		}
	}
	
	if( rawPtr == NULL )
	{
		return NULL;
     422:	80 e0       	ldi	r24, 0x00	; 0
     424:	90 e0       	ldi	r25, 0x00	; 0
     426:	15 c0       	rjmp	.+42     	; 0x452 <__LOCK_REGION_LENGTH__+0x52>
	cmd->raw->paraNumb = cmdCntPara( ( char * ) rawPtr );
	
	cmdEndPtr = strchr( rawPtr , ';' );	
	if( cmdEndPtr == NULL )
	{
		return  NULL;
     428:	80 e0       	ldi	r24, 0x00	; 0
     42a:	90 e0       	ldi	r25, 0x00	; 0
     42c:	12 c0       	rjmp	.+36     	; 0x452 <__LOCK_REGION_LENGTH__+0x52>
	}

	delimiter = strtok( delimiter , CMD_RAW_PARA_DELIMITER );
	if( delimiter == NULL )
	{
		return  NULL;
     42e:	80 e0       	ldi	r24, 0x00	; 0
     430:	90 e0       	ldi	r25, 0x00	; 0
     432:	0f c0       	rjmp	.+30     	; 0x452 <__LOCK_REGION_LENGTH__+0x52>
	if( rawPtr == NULL )
	{
		return NULL;
	}
	
	cmd->raw->paraNumb = cmdCntPara( ( char * ) rawPtr );
     434:	d8 01       	movw	r26, r16
     436:	14 96       	adiw	r26, 0x04	; 4
     438:	cd 90       	ld	r12, X+
     43a:	dc 90       	ld	r13, X
     43c:	15 97       	sbiw	r26, 0x05	; 5
{
	uint8_t x = 0;
	char *cmdPtr = cmd;
	char *beginnPtr = cmd;
	
	beginnPtr = strchr( beginnPtr , ':' ); // Erster Parameter
     43e:	6a e3       	ldi	r22, 0x3A	; 58
     440:	70 e0       	ldi	r23, 0x00	; 0
     442:	0e 94 28 09 	call	0x1250	; 0x1250 <strchr>
	if ( beginnPtr != NULL )
     446:	00 97       	sbiw	r24, 0x00	; 0
     448:	09 f0       	breq	.+2      	; 0x44c <__LOCK_REGION_LENGTH__+0x4c>
     44a:	9a cf       	rjmp	.-204    	; 0x380 <cmdGetPara+0x78>
// };


static uint8_t 		cmdCntPara			( char *cmd )								
{
	uint8_t x = 0;
     44c:	c0 e0       	ldi	r28, 0x00	; 0
	
	uint8_t x;
	
	for ( x = 0 ; x < cmd->tabLen ; x++ )
	{
		rawPtr = ( const char *) cmdSearch( input , ( char * ) cmd->table[x].instruction );
     44e:	c7 01       	movw	r24, r14
     450:	a1 cf       	rjmp	.-190    	; 0x394 <cmdGetPara+0x8c>
	strcpy( buff , delimiter );
	char *ptr = strchr( buff , ';' );
	*ptr = '\0';
	
	return buff; 
}
     452:	df 91       	pop	r29
     454:	cf 91       	pop	r28
     456:	1f 91       	pop	r17
     458:	0f 91       	pop	r16
     45a:	ff 90       	pop	r15
     45c:	ef 90       	pop	r14
     45e:	df 90       	pop	r13
     460:	cf 90       	pop	r12
     462:	bf 90       	pop	r11
     464:	af 90       	pop	r10
     466:	9f 90       	pop	r9
     468:	7f 90       	pop	r7
     46a:	6f 90       	pop	r6
     46c:	08 95       	ret

0000046e <selectFont>:
	str[3] = '°';
	str[4] = 'C';
	str[5] = '\0';
	
	return str;
}
     46e:	90 93 7f 00 	sts	0x007F, r25	; 0x80007f <disp+0x6>
     472:	80 93 7e 00 	sts	0x007E, r24	; 0x80007e <disp+0x5>
     476:	08 95       	ret

00000478 <getCharMapIndex>:
     478:	28 2f       	mov	r18, r24
     47a:	a0 91 7e 00 	lds	r26, 0x007E	; 0x80007e <disp+0x5>
     47e:	b0 91 7f 00 	lds	r27, 0x007F	; 0x80007f <disp+0x6>
     482:	8c 91       	ld	r24, X
     484:	28 17       	cp	r18, r24
     486:	81 f0       	breq	.+32     	; 0x4a8 <getCharMapIndex+0x30>
     488:	88 23       	and	r24, r24
     48a:	81 f0       	breq	.+32     	; 0x4ac <getCharMapIndex+0x34>
     48c:	80 e0       	ldi	r24, 0x00	; 0
     48e:	8f 5f       	subi	r24, 0xFF	; 255
     490:	e8 2f       	mov	r30, r24
     492:	f0 e0       	ldi	r31, 0x00	; 0
     494:	ee 0f       	add	r30, r30
     496:	ff 1f       	adc	r31, r31
     498:	ea 0f       	add	r30, r26
     49a:	fb 1f       	adc	r31, r27
     49c:	90 81       	ld	r25, Z
     49e:	92 17       	cp	r25, r18
     4a0:	31 f0       	breq	.+12     	; 0x4ae <getCharMapIndex+0x36>
     4a2:	91 11       	cpse	r25, r1
     4a4:	f4 cf       	rjmp	.-24     	; 0x48e <getCharMapIndex+0x16>
     4a6:	08 95       	ret
     4a8:	80 e0       	ldi	r24, 0x00	; 0
     4aa:	08 95       	ret
     4ac:	80 e0       	ldi	r24, 0x00	; 0
     4ae:	08 95       	ret

000004b0 <timeDecToRam>:
     4b0:	8b 37       	cpi	r24, 0x7B	; 123
     4b2:	31 f4       	brne	.+12     	; 0x4c0 <timeDecToRam+0x10>
     4b4:	e9 e7       	ldi	r30, 0x79	; 121
     4b6:	f0 e0       	ldi	r31, 0x00	; 0
     4b8:	80 e2       	ldi	r24, 0x20	; 32
     4ba:	80 83       	st	Z, r24
     4bc:	81 83       	std	Z+1, r24	; 0x01
     4be:	14 c0       	rjmp	.+40     	; 0x4e8 <timeDecToRam+0x38>
     4c0:	e9 e7       	ldi	r30, 0x79	; 121
     4c2:	f0 e0       	ldi	r31, 0x00	; 0
     4c4:	9d ec       	ldi	r25, 0xCD	; 205
     4c6:	89 9f       	mul	r24, r25
     4c8:	91 2d       	mov	r25, r1
     4ca:	11 24       	eor	r1, r1
     4cc:	96 95       	lsr	r25
     4ce:	96 95       	lsr	r25
     4d0:	96 95       	lsr	r25
     4d2:	20 e3       	ldi	r18, 0x30	; 48
     4d4:	29 0f       	add	r18, r25
     4d6:	20 83       	st	Z, r18
     4d8:	99 0f       	add	r25, r25
     4da:	29 2f       	mov	r18, r25
     4dc:	22 0f       	add	r18, r18
     4de:	22 0f       	add	r18, r18
     4e0:	92 0f       	add	r25, r18
     4e2:	89 1b       	sub	r24, r25
     4e4:	80 5d       	subi	r24, 0xD0	; 208
     4e6:	81 83       	std	Z+1, r24	; 0x01
     4e8:	6b 37       	cpi	r22, 0x7B	; 123
     4ea:	31 f4       	brne	.+12     	; 0x4f8 <timeDecToRam+0x48>
     4ec:	e9 e7       	ldi	r30, 0x79	; 121
     4ee:	f0 e0       	ldi	r31, 0x00	; 0
     4f0:	80 e2       	ldi	r24, 0x20	; 32
     4f2:	82 83       	std	Z+2, r24	; 0x02
     4f4:	83 83       	std	Z+3, r24	; 0x03
     4f6:	08 95       	ret
     4f8:	e9 e7       	ldi	r30, 0x79	; 121
     4fa:	f0 e0       	ldi	r31, 0x00	; 0
     4fc:	8d ec       	ldi	r24, 0xCD	; 205
     4fe:	68 9f       	mul	r22, r24
     500:	81 2d       	mov	r24, r1
     502:	11 24       	eor	r1, r1
     504:	86 95       	lsr	r24
     506:	86 95       	lsr	r24
     508:	86 95       	lsr	r24
     50a:	90 e3       	ldi	r25, 0x30	; 48
     50c:	98 0f       	add	r25, r24
     50e:	92 83       	std	Z+2, r25	; 0x02
     510:	88 0f       	add	r24, r24
     512:	98 2f       	mov	r25, r24
     514:	99 0f       	add	r25, r25
     516:	99 0f       	add	r25, r25
     518:	89 0f       	add	r24, r25
     51a:	68 1b       	sub	r22, r24
     51c:	60 5d       	subi	r22, 0xD0	; 208
     51e:	63 83       	std	Z+3, r22	; 0x03
     520:	08 95       	ret

00000522 <chToRam>:

void chToRam( char ch , enum mcp23017_gpb dig )
{	
     522:	0f 93       	push	r16
     524:	1f 93       	push	r17
     526:	cf 93       	push	r28
     528:	c6 2f       	mov	r28, r22
	char ret = ~( * ( ( disp.fnt ) + ( ( 2 * getCharMapIndex( ch ) ) + 1 ) ) );
     52a:	00 91 7e 00 	lds	r16, 0x007E	; 0x80007e <disp+0x5>
     52e:	10 91 7f 00 	lds	r17, 0x007F	; 0x80007f <disp+0x6>
     532:	0e 94 3c 02 	call	0x478	; 0x478 <getCharMapIndex>
     536:	e8 2f       	mov	r30, r24
     538:	f0 e0       	ldi	r31, 0x00	; 0
     53a:	ee 0f       	add	r30, r30
     53c:	ff 1f       	adc	r31, r31
     53e:	e0 0f       	add	r30, r16
     540:	f1 1f       	adc	r31, r17
	
	mcp23017_set_gpa( ret );
     542:	81 81       	ldd	r24, Z+1	; 0x01
     544:	80 95       	com	r24
     546:	0e 94 1c 03 	call	0x638	; 0x638 <mcp23017_set_gpa>
	mcp23017_set_gpb( (~(dig)) & ~(REFERENCE_ENABLE) ); // REFERENCE_ENABLE nicht mit setzen
     54a:	8c 2f       	mov	r24, r28
     54c:	80 95       	com	r24
     54e:	8f 77       	andi	r24, 0x7F	; 127
     550:	0e 94 2b 03 	call	0x656	; 0x656 <mcp23017_set_gpb>
}
     554:	cf 91       	pop	r28
     556:	1f 91       	pop	r17
     558:	0f 91       	pop	r16
     55a:	08 95       	ret

0000055c <refEnable>:

void refEnable( uint8_t state )
{
	switch( state )
     55c:	88 23       	and	r24, r24
     55e:	19 f0       	breq	.+6      	; 0x566 <refEnable+0xa>
     560:	81 30       	cpi	r24, 0x01	; 1
     562:	29 f0       	breq	.+10     	; 0x56e <refEnable+0x12>
     564:	08 95       	ret
	{
		case 0:
		{
			mcp23017_set_gpb( 0xFF & ~REFERENCE_ENABLE );
     566:	8f e7       	ldi	r24, 0x7F	; 127
     568:	0e 94 2b 03 	call	0x656	; 0x656 <mcp23017_set_gpb>
		}break;
     56c:	08 95       	ret
		
		case 1:
		{
			mcp23017_set_gpb( REFERENCE_ENABLE );
     56e:	80 e8       	ldi	r24, 0x80	; 128
     570:	0e 94 2b 03 	call	0x656	; 0x656 <mcp23017_set_gpb>
     574:	08 95       	ret

00000576 <clearDigits>:
void clearDigits( void )
{
	
	for ( uint8_t x = 0 ; x < 4 ; x++ )
	{
		disp.dig[x] = ' ';
     576:	e9 e7       	ldi	r30, 0x79	; 121
     578:	f0 e0       	ldi	r31, 0x00	; 0
     57a:	80 e2       	ldi	r24, 0x20	; 32
     57c:	80 83       	st	Z, r24
     57e:	81 83       	std	Z+1, r24	; 0x01
     580:	82 83       	std	Z+2, r24	; 0x02
     582:	83 83       	std	Z+3, r24	; 0x03
     584:	08 95       	ret

00000586 <muxDigits>:

void muxDigits( void )
{
	static uint8_t mux = 0;
	
	if ( mux >= 35 )
     586:	e0 91 08 02 	lds	r30, 0x0208	; 0x800208 <mux.2033>
     58a:	e3 32       	cpi	r30, 0x23	; 35
     58c:	18 f0       	brcs	.+6      	; 0x594 <muxDigits+0xe>
	{
		mux = 0;
     58e:	10 92 08 02 	sts	0x0208, r1	; 0x800208 <mux.2033>
     592:	0d c0       	rjmp	.+26     	; 0x5ae <muxDigits+0x28>
	}
	else
	{
		mux++;
     594:	ef 5f       	subi	r30, 0xFF	; 255
     596:	e0 93 08 02 	sts	0x0208, r30	; 0x800208 <mux.2033>
	}
	
	switch( mux )
     59a:	8e 2f       	mov	r24, r30
     59c:	90 e0       	ldi	r25, 0x00	; 0
     59e:	84 32       	cpi	r24, 0x24	; 36
     5a0:	91 05       	cpc	r25, r1
     5a2:	80 f5       	brcc	.+96     	; 0x604 <muxDigits+0x7e>
     5a4:	fc 01       	movw	r30, r24
     5a6:	e6 5d       	subi	r30, 0xD6	; 214
     5a8:	ff 4f       	sbci	r31, 0xFF	; 255
     5aa:	0c 94 12 09 	jmp	0x1224	; 0x1224 <__tablejump2__>
	{
		case 0:
		{
			chToRam( disp.dig[0] , DRIVE_dig_1 );
     5ae:	60 e4       	ldi	r22, 0x40	; 64
     5b0:	80 91 79 00 	lds	r24, 0x0079	; 0x800079 <disp>
     5b4:	0e 94 91 02 	call	0x522	; 0x522 <chToRam>
		}break;
     5b8:	08 95       	ret
		case 5:
		{
			chToRam( ' ' , ~(DRIVE_dig_1 | DRIVE_dig_2 | DRIVE_dig_3 | DRIVE_dig_4 ) );
     5ba:	67 e8       	ldi	r22, 0x87	; 135
     5bc:	80 e2       	ldi	r24, 0x20	; 32
     5be:	0e 94 91 02 	call	0x522	; 0x522 <chToRam>
		}break;
     5c2:	08 95       	ret
		case 10:
		{
			chToRam( disp.dig[1] , DRIVE_dig_2 );
     5c4:	60 e2       	ldi	r22, 0x20	; 32
     5c6:	80 91 7a 00 	lds	r24, 0x007A	; 0x80007a <disp+0x1>
     5ca:	0e 94 91 02 	call	0x522	; 0x522 <chToRam>
		}break;
     5ce:	08 95       	ret
		case 15:
		{
			chToRam( ' ', ~( DRIVE_dig_1 | DRIVE_dig_2 | DRIVE_dig_3 | DRIVE_dig_4 ) );
     5d0:	67 e8       	ldi	r22, 0x87	; 135
     5d2:	80 e2       	ldi	r24, 0x20	; 32
     5d4:	0e 94 91 02 	call	0x522	; 0x522 <chToRam>
		}break;
     5d8:	08 95       	ret
		case 20:
		{
			chToRam( disp.dig[2] , DRIVE_dig_3 );
     5da:	60 e1       	ldi	r22, 0x10	; 16
     5dc:	80 91 7b 00 	lds	r24, 0x007B	; 0x80007b <disp+0x2>
     5e0:	0e 94 91 02 	call	0x522	; 0x522 <chToRam>
		}break;
     5e4:	08 95       	ret
		case 25:
		{
			chToRam( ' ' , ~( DRIVE_dig_1 | DRIVE_dig_2 | DRIVE_dig_3 | DRIVE_dig_4 ) );
     5e6:	67 e8       	ldi	r22, 0x87	; 135
     5e8:	80 e2       	ldi	r24, 0x20	; 32
     5ea:	0e 94 91 02 	call	0x522	; 0x522 <chToRam>
		}break;
     5ee:	08 95       	ret
		case 30:
		{
			chToRam(disp.dig[3],DRIVE_dig_4);
     5f0:	68 e0       	ldi	r22, 0x08	; 8
     5f2:	80 91 7c 00 	lds	r24, 0x007C	; 0x80007c <disp+0x3>
     5f6:	0e 94 91 02 	call	0x522	; 0x522 <chToRam>
		}break;
     5fa:	08 95       	ret
		case 35:
		{
			chToRam( ' ' , ~( DRIVE_dig_1 | DRIVE_dig_2 | DRIVE_dig_3 | DRIVE_dig_4 ) );
     5fc:	67 e8       	ldi	r22, 0x87	; 135
     5fe:	80 e2       	ldi	r24, 0x20	; 32
     600:	0e 94 91 02 	call	0x522	; 0x522 <chToRam>
     604:	08 95       	ret

00000606 <hardware_init>:
#include "hard_def.h"

void hardware_init(void)
{
	/* gpios as output */
	DDR(GLCD_PORT) 	 			|= ((1<<GLCD_CS1_bp) | (1<<GLCD_RES_bp) | (1<<GLCD_A0_bp) | (1<<GLCD_SCL_bp) | (1<<GLCD_DATA_bp));
     606:	8a b3       	in	r24, 0x1a	; 26
     608:	88 6f       	ori	r24, 0xF8	; 248
     60a:	8a bb       	out	0x1a, r24	; 26
	DDR(GLCD_LED_PORT) 			|= ((1<<GLCD_LED_BLUE_bp) | (1<<GLCD_LED_GREEN_bp) | (1<<GLCD_LED_RED_bp));
     60c:	84 b3       	in	r24, 0x14	; 20
     60e:	80 6e       	ori	r24, 0xE0	; 224
     610:	84 bb       	out	0x14, r24	; 20
	DDR(LED_HEARTBEAT_PORT) 	|= ( 1<<LED_HEARTBEAT_bp);
     612:	bf 9a       	sbi	0x17, 7	; 23
	DDR(VIBRATION_MOTOR_PORT)	|= ( 1<<VIBRATION_MOTOR_bp);
     614:	be 9a       	sbi	0x17, 6	; 23
	DDR(SOUND_PORT)				|= ( 1<<SOUND_bp);
     616:	a4 9a       	sbi	0x14, 4	; 20
	DDR(RELAIS_PORT1_PORT)		|= ((RELAIS_1_PORT1) | (RELAIS_2_PORT1) | (RELAIS_3_PORT1) | (RELAIS_4_PORT1) | (RELAIS_5_PORT1) | (RELAIS_6_PORT1));
     618:	81 b3       	in	r24, 0x11	; 17
     61a:	8c 6f       	ori	r24, 0xFC	; 252
     61c:	81 bb       	out	0x11, r24	; 17
	DDR(RELAIS_PORT2_PORT)		|= ((RELAIS_7_PORT2) | (RELAIS_8_PORT2));
     61e:	84 b3       	in	r24, 0x14	; 20
     620:	8c 60       	ori	r24, 0x0C	; 12
     622:	84 bb       	out	0x14, r24	; 20

	SOUND_DDR |= (1<<SOUND_bp);
     624:	a4 9a       	sbi	0x14, 4	; 20
	
	/* gpios as input */
	DDR(SWITCH_PORT)			&= ~((1<<SWITCH_ENTER_bp) | (1<<SWITCH_UP_bp) | (1<<SWITCH_DOWN_bp) | (1<<SWITCH_RETURN_bp));
     626:	87 b3       	in	r24, 0x17	; 23
     628:	80 7f       	andi	r24, 0xF0	; 240
     62a:	87 bb       	out	0x17, r24	; 23
	DDR(MEASURE_VCC_PORT) 		&= ~( 1<<MEASURE_VCC_bp);
     62c:	d0 98       	cbi	0x1a, 0	; 26
	DDR(ENC_SWITCH_PORT)  		&= ~( 1<<ENC_SWITCH_bp);
     62e:	ac 98       	cbi	0x15, 4	; 21
	DDR(ENC_PORT)		 		&= ~((1<<ENC_A) | (1<<ENC_B));
     630:	8a b3       	in	r24, 0x1a	; 26
     632:	89 7f       	andi	r24, 0xF9	; 249
     634:	8a bb       	out	0x1a, r24	; 26
     636:	08 95       	ret

00000638 <mcp23017_set_gpa>:
	mcp23017_set_gpb(0);
	
}

void mcp23017_set_gpa(uint8_t cmd)
{	
     638:	cf 93       	push	r28
     63a:	c8 2f       	mov	r28, r24
	i2c_start_wait(MCP23017_ADDR + I2C_WRITE);
     63c:	80 e4       	ldi	r24, 0x40	; 64
     63e:	0e 94 88 00 	call	0x110	; 0x110 <i2c_start_wait>
	i2c_write(GPIOA);
     642:	82 e1       	ldi	r24, 0x12	; 18
     644:	0e 94 9a 00 	call	0x134	; 0x134 <i2c_write>
	i2c_write(cmd);
     648:	8c 2f       	mov	r24, r28
     64a:	0e 94 9a 00 	call	0x134	; 0x134 <i2c_write>
	i2c_stop();
     64e:	0e 94 92 00 	call	0x124	; 0x124 <i2c_stop>
};
     652:	cf 91       	pop	r28
     654:	08 95       	ret

00000656 <mcp23017_set_gpb>:

void mcp23017_set_gpb(uint8_t cmd)
{	
     656:	cf 93       	push	r28
     658:	c8 2f       	mov	r28, r24
	i2c_start_wait(MCP23017_ADDR + I2C_WRITE);
     65a:	80 e4       	ldi	r24, 0x40	; 64
     65c:	0e 94 88 00 	call	0x110	; 0x110 <i2c_start_wait>
	i2c_write(GPIOB);
     660:	83 e1       	ldi	r24, 0x13	; 19
     662:	0e 94 9a 00 	call	0x134	; 0x134 <i2c_write>
	i2c_write(cmd);
     666:	8c 2f       	mov	r24, r28
     668:	0e 94 9a 00 	call	0x134	; 0x134 <i2c_write>
	i2c_stop();
     66c:	0e 94 92 00 	call	0x124	; 0x124 <i2c_stop>
};
     670:	cf 91       	pop	r28
     672:	08 95       	ret

00000674 <mcp23017_init>:

static uint8_t cmd = 0;

void mcp23017_init(void)
{
	i2c_start_wait(MCP23017_ADDR + I2C_WRITE);
     674:	80 e4       	ldi	r24, 0x40	; 64
     676:	0e 94 88 00 	call	0x110	; 0x110 <i2c_start_wait>
	
	cmd = GPIOS_COMP_AS_OUT; 
     67a:	10 92 09 02 	sts	0x0209, r1	; 0x800209 <cmd>
	/* set gpios @ outputs */
	i2c_write(IODIRA);
     67e:	80 e0       	ldi	r24, 0x00	; 0
     680:	0e 94 9a 00 	call	0x134	; 0x134 <i2c_write>
	i2c_write(cmd);
     684:	80 91 09 02 	lds	r24, 0x0209	; 0x800209 <cmd>
     688:	0e 94 9a 00 	call	0x134	; 0x134 <i2c_write>
	i2c_write(IODIRB);
     68c:	81 e0       	ldi	r24, 0x01	; 1
     68e:	0e 94 9a 00 	call	0x134	; 0x134 <i2c_write>
	i2c_write(cmd);
     692:	80 91 09 02 	lds	r24, 0x0209	; 0x800209 <cmd>
     696:	0e 94 9a 00 	call	0x134	; 0x134 <i2c_write>
	i2c_stop();
     69a:	0e 94 92 00 	call	0x124	; 0x124 <i2c_stop>
	
	mcp23017_set_gpa(0);
     69e:	80 e0       	ldi	r24, 0x00	; 0
     6a0:	0e 94 1c 03 	call	0x638	; 0x638 <mcp23017_set_gpa>
	mcp23017_set_gpb(0);
     6a4:	80 e0       	ldi	r24, 0x00	; 0
     6a6:	0e 94 2b 03 	call	0x656	; 0x656 <mcp23017_set_gpb>
     6aa:	08 95       	ret

000006ac <bcdToDec>:
  
void rtcSetClkOut(uint8_t frequency)
{    
	buff[0] = clkout_frequency_register;
	buff[1] = frequency;
	rx8564Writes( buff , sizeof(buff) );	
     6ac:	98 2f       	mov	r25, r24
     6ae:	92 95       	swap	r25
     6b0:	9f 70       	andi	r25, 0x0F	; 15
     6b2:	99 0f       	add	r25, r25
     6b4:	29 2f       	mov	r18, r25
     6b6:	22 0f       	add	r18, r18
     6b8:	22 0f       	add	r18, r18
     6ba:	92 0f       	add	r25, r18
     6bc:	8f 70       	andi	r24, 0x0F	; 15
     6be:	89 0f       	add	r24, r25
     6c0:	08 95       	ret

000006c2 <rx8564Reads>:
     6c2:	df 92       	push	r13
     6c4:	ef 92       	push	r14
     6c6:	ff 92       	push	r15
     6c8:	0f 93       	push	r16
     6ca:	1f 93       	push	r17
     6cc:	cf 93       	push	r28
     6ce:	df 93       	push	r29
     6d0:	7c 01       	movw	r14, r24
     6d2:	16 2f       	mov	r17, r22
     6d4:	82 ea       	ldi	r24, 0xA2	; 162
     6d6:	0e 94 88 00 	call	0x110	; 0x110 <i2c_start_wait>
     6da:	f7 01       	movw	r30, r14
     6dc:	80 81       	ld	r24, Z
     6de:	0e 94 9a 00 	call	0x134	; 0x134 <i2c_write>
     6e2:	83 ea       	ldi	r24, 0xA3	; 163
     6e4:	0e 94 7e 00 	call	0xfc	; 0xfc <i2c_rep_start>
     6e8:	d8 2e       	mov	r13, r24
     6ea:	81 11       	cpse	r24, r1
     6ec:	05 c0       	rjmp	.+10     	; 0x6f8 <rx8564Reads+0x36>
     6ee:	11 23       	and	r17, r17
     6f0:	f1 f0       	breq	.+60     	; 0x72e <rx8564Reads+0x6c>
     6f2:	11 30       	cpi	r17, 0x01	; 1
     6f4:	69 f4       	brne	.+26     	; 0x710 <rx8564Reads+0x4e>
     6f6:	05 c0       	rjmp	.+10     	; 0x702 <rx8564Reads+0x40>
     6f8:	0e 94 92 00 	call	0x124	; 0x124 <i2c_stop>
     6fc:	dd 24       	eor	r13, r13
     6fe:	d3 94       	inc	r13
     700:	1c c0       	rjmp	.+56     	; 0x73a <rx8564Reads+0x78>
     702:	0e 94 b6 00 	call	0x16c	; 0x16c <i2c_readNak>
     706:	f7 01       	movw	r30, r14
     708:	80 83       	st	Z, r24
     70a:	0e 94 92 00 	call	0x124	; 0x124 <i2c_stop>
     70e:	15 c0       	rjmp	.+42     	; 0x73a <rx8564Reads+0x78>
     710:	e7 01       	movw	r28, r14
     712:	11 50       	subi	r17, 0x01	; 1
     714:	61 2f       	mov	r22, r17
     716:	70 e0       	ldi	r23, 0x00	; 0
     718:	6f 5f       	subi	r22, 0xFF	; 255
     71a:	7f 4f       	sbci	r23, 0xFF	; 255
     71c:	e6 0e       	add	r14, r22
     71e:	f7 1e       	adc	r15, r23
     720:	87 01       	movw	r16, r14
     722:	0e 94 b8 00 	call	0x170	; 0x170 <i2c_readAck>
     726:	89 93       	st	Y+, r24
     728:	c0 17       	cp	r28, r16
     72a:	d1 07       	cpc	r29, r17
     72c:	d1 f7       	brne	.-12     	; 0x722 <rx8564Reads+0x60>
     72e:	0e 94 b6 00 	call	0x16c	; 0x16c <i2c_readNak>
     732:	f7 01       	movw	r30, r14
     734:	80 83       	st	Z, r24
     736:	0e 94 92 00 	call	0x124	; 0x124 <i2c_stop>
     73a:	8d 2d       	mov	r24, r13
     73c:	df 91       	pop	r29
     73e:	cf 91       	pop	r28
     740:	1f 91       	pop	r17
     742:	0f 91       	pop	r16
     744:	ff 90       	pop	r15
     746:	ef 90       	pop	r14
     748:	df 90       	pop	r13
     74a:	08 95       	ret

0000074c <rx8564Writes>:
     74c:	ef 92       	push	r14
     74e:	ff 92       	push	r15
     750:	0f 93       	push	r16
     752:	1f 93       	push	r17
     754:	cf 93       	push	r28
     756:	df 93       	push	r29
     758:	7c 01       	movw	r14, r24
     75a:	16 2f       	mov	r17, r22
     75c:	82 ea       	ldi	r24, 0xA2	; 162
     75e:	0e 94 88 00 	call	0x110	; 0x110 <i2c_start_wait>
     762:	11 23       	and	r17, r17
     764:	71 f0       	breq	.+28     	; 0x782 <rx8564Writes+0x36>
     766:	e7 01       	movw	r28, r14
     768:	11 50       	subi	r17, 0x01	; 1
     76a:	01 2f       	mov	r16, r17
     76c:	10 e0       	ldi	r17, 0x00	; 0
     76e:	0f 5f       	subi	r16, 0xFF	; 255
     770:	1f 4f       	sbci	r17, 0xFF	; 255
     772:	0e 0d       	add	r16, r14
     774:	1f 1d       	adc	r17, r15
     776:	89 91       	ld	r24, Y+
     778:	0e 94 9a 00 	call	0x134	; 0x134 <i2c_write>
     77c:	c0 17       	cp	r28, r16
     77e:	d1 07       	cpc	r29, r17
     780:	d1 f7       	brne	.-12     	; 0x776 <rx8564Writes+0x2a>
     782:	0e 94 92 00 	call	0x124	; 0x124 <i2c_stop>
     786:	80 e0       	ldi	r24, 0x00	; 0
     788:	df 91       	pop	r29
     78a:	cf 91       	pop	r28
     78c:	1f 91       	pop	r17
     78e:	0f 91       	pop	r16
     790:	ff 90       	pop	r15
     792:	ef 90       	pop	r14
     794:	08 95       	ret

00000796 <rtcSetTime>:
     796:	ea e0       	ldi	r30, 0x0A	; 10
     798:	f2 e0       	ldi	r31, 0x02	; 2
     79a:	92 e0       	ldi	r25, 0x02	; 2
     79c:	90 83       	st	Z, r25
     79e:	9d ec       	ldi	r25, 0xCD	; 205
     7a0:	49 9f       	mul	r20, r25
     7a2:	21 2d       	mov	r18, r1
     7a4:	11 24       	eor	r1, r1
     7a6:	26 95       	lsr	r18
     7a8:	26 95       	lsr	r18
     7aa:	26 95       	lsr	r18
     7ac:	30 e1       	ldi	r19, 0x10	; 16
     7ae:	23 9f       	mul	r18, r19
     7b0:	d0 01       	movw	r26, r0
     7b2:	11 24       	eor	r1, r1
     7b4:	22 0f       	add	r18, r18
     7b6:	32 2f       	mov	r19, r18
     7b8:	33 0f       	add	r19, r19
     7ba:	33 0f       	add	r19, r19
     7bc:	23 0f       	add	r18, r19
     7be:	42 1b       	sub	r20, r18
     7c0:	4a 2b       	or	r20, r26
     7c2:	41 83       	std	Z+1, r20	; 0x01
     7c4:	69 9f       	mul	r22, r25
     7c6:	21 2d       	mov	r18, r1
     7c8:	11 24       	eor	r1, r1
     7ca:	26 95       	lsr	r18
     7cc:	26 95       	lsr	r18
     7ce:	26 95       	lsr	r18
     7d0:	30 e1       	ldi	r19, 0x10	; 16
     7d2:	23 9f       	mul	r18, r19
     7d4:	a0 01       	movw	r20, r0
     7d6:	11 24       	eor	r1, r1
     7d8:	22 0f       	add	r18, r18
     7da:	32 2f       	mov	r19, r18
     7dc:	33 0f       	add	r19, r19
     7de:	33 0f       	add	r19, r19
     7e0:	23 0f       	add	r18, r19
     7e2:	62 1b       	sub	r22, r18
     7e4:	64 2b       	or	r22, r20
     7e6:	62 83       	std	Z+2, r22	; 0x02
     7e8:	89 9f       	mul	r24, r25
     7ea:	91 2d       	mov	r25, r1
     7ec:	11 24       	eor	r1, r1
     7ee:	96 95       	lsr	r25
     7f0:	96 95       	lsr	r25
     7f2:	96 95       	lsr	r25
     7f4:	40 e1       	ldi	r20, 0x10	; 16
     7f6:	94 9f       	mul	r25, r20
     7f8:	90 01       	movw	r18, r0
     7fa:	11 24       	eor	r1, r1
     7fc:	99 0f       	add	r25, r25
     7fe:	39 2f       	mov	r19, r25
     800:	33 0f       	add	r19, r19
     802:	33 0f       	add	r19, r19
     804:	93 0f       	add	r25, r19
     806:	89 1b       	sub	r24, r25
     808:	82 2b       	or	r24, r18
     80a:	83 83       	std	Z+3, r24	; 0x03
     80c:	6b e0       	ldi	r22, 0x0B	; 11
     80e:	cf 01       	movw	r24, r30
     810:	0e 94 a6 03 	call	0x74c	; 0x74c <rx8564Writes>
     814:	08 95       	ret

00000816 <rtcGetData>:
}
 
void rtcGetData(rx8564_t *buffer)
{   
     816:	0f 93       	push	r16
     818:	1f 93       	push	r17
     81a:	cf 93       	push	r28
     81c:	df 93       	push	r29
     81e:	ec 01       	movw	r28, r24
	buff[0] = seconds_register;
     820:	0a e0       	ldi	r16, 0x0A	; 10
     822:	12 e0       	ldi	r17, 0x02	; 2
     824:	82 e0       	ldi	r24, 0x02	; 2
     826:	d8 01       	movw	r26, r16
     828:	8c 93       	st	X, r24
	rx8564Reads( buff , sizeof(buff) );
     82a:	6b e0       	ldi	r22, 0x0B	; 11
     82c:	c8 01       	movw	r24, r16
     82e:	0e 94 61 03 	call	0x6c2	; 0x6c2 <rx8564Reads>
			
    buffer->second			= buff[0];
     832:	d8 01       	movw	r26, r16
     834:	ec 91       	ld	r30, X
     836:	e8 83       	st	Y, r30
    buffer->minute			= buff[1];  
     838:	11 96       	adiw	r26, 0x01	; 1
     83a:	7c 91       	ld	r23, X
     83c:	11 97       	sbiw	r26, 0x01	; 1
     83e:	79 83       	std	Y+1, r23	; 0x01
    buffer->hour			= buff[2];
     840:	12 96       	adiw	r26, 0x02	; 2
     842:	6c 91       	ld	r22, X
     844:	12 97       	sbiw	r26, 0x02	; 2
     846:	6a 83       	std	Y+2, r22	; 0x02
    buffer->day				= buff[3];
     848:	13 96       	adiw	r26, 0x03	; 3
     84a:	5c 91       	ld	r21, X
     84c:	13 97       	sbiw	r26, 0x03	; 3
     84e:	5c 83       	std	Y+4, r21	; 0x04
    buffer->dayName			= buff[4];
     850:	14 96       	adiw	r26, 0x04	; 4
     852:	3c 91       	ld	r19, X
     854:	14 97       	sbiw	r26, 0x04	; 4
     856:	3d 83       	std	Y+5, r19	; 0x05
    buffer->month			= buff[5];
     858:	15 96       	adiw	r26, 0x05	; 5
     85a:	4c 91       	ld	r20, X
     85c:	15 97       	sbiw	r26, 0x05	; 5
     85e:	4b 83       	std	Y+3, r20	; 0x03
    buffer->year			= buff[6];
     860:	16 96       	adiw	r26, 0x06	; 6
     862:	8c 91       	ld	r24, X
     864:	16 97       	sbiw	r26, 0x06	; 6
     866:	90 e0       	ldi	r25, 0x00	; 0
     868:	9f 83       	std	Y+7, r25	; 0x07
     86a:	8e 83       	std	Y+6, r24	; 0x06
    buffer->alrt_minute		= buff[7];
     86c:	17 96       	adiw	r26, 0x07	; 7
     86e:	2c 91       	ld	r18, X
     870:	17 97       	sbiw	r26, 0x07	; 7
     872:	28 87       	std	Y+8, r18	; 0x08
    buffer->alrt_hour		= buff[8];
     874:	18 96       	adiw	r26, 0x08	; 8
     876:	9c 91       	ld	r25, X
     878:	18 97       	sbiw	r26, 0x08	; 8
     87a:	99 87       	std	Y+9, r25	; 0x09
    buffer->alrt_day		= buff[9];
     87c:	19 96       	adiw	r26, 0x09	; 9
     87e:	8c 91       	ld	r24, X
     880:	19 97       	sbiw	r26, 0x09	; 9
     882:	8a 87       	std	Y+10, r24	; 0x0a
    buffer->alrt_dayName	= buff[10];
     884:	1a 96       	adiw	r26, 0x0a	; 10
     886:	fc 91       	ld	r31, X

 
    buffer->second			&= 0x7F;
     888:	ef 77       	andi	r30, 0x7F	; 127
     88a:	e8 83       	st	Y, r30
    buffer->minute			&= 0x7F;
     88c:	7f 77       	andi	r23, 0x7F	; 127
     88e:	79 83       	std	Y+1, r23	; 0x01
    buffer->hour			&= 0x3F;
     890:	6f 73       	andi	r22, 0x3F	; 63
     892:	6a 83       	std	Y+2, r22	; 0x02
          
    buffer->day				&= 0x3F;
     894:	5f 73       	andi	r21, 0x3F	; 63
     896:	5c 83       	std	Y+4, r21	; 0x04
    buffer->month			&= 0x1F;
     898:	4f 71       	andi	r20, 0x1F	; 31
     89a:	4b 83       	std	Y+3, r20	; 0x03
    buffer->dayName			&= 0x07;
     89c:	37 70       	andi	r19, 0x07	; 7
     89e:	3d 83       	std	Y+5, r19	; 0x05
     
    buffer->alrt_minute		&= 0x7F;
     8a0:	2f 77       	andi	r18, 0x7F	; 127
     8a2:	28 87       	std	Y+8, r18	; 0x08
    buffer->alrt_hour		&= 0x7F;
     8a4:	9f 77       	andi	r25, 0x7F	; 127
     8a6:	99 87       	std	Y+9, r25	; 0x09
    buffer->alrt_day		&= 0x7F;
     8a8:	8f 77       	andi	r24, 0x7F	; 127
     8aa:	8a 87       	std	Y+10, r24	; 0x0a
    buffer->alrt_dayName	&= 0x7F;
     8ac:	8f 2f       	mov	r24, r31
     8ae:	8f 77       	andi	r24, 0x7F	; 127
     8b0:	8b 87       	std	Y+11, r24	; 0x0b
}
     8b2:	df 91       	pop	r29
     8b4:	cf 91       	pop	r28
     8b6:	1f 91       	pop	r17
     8b8:	0f 91       	pop	r16
     8ba:	08 95       	ret

000008bc <sts3x_init>:



void sts3x_init(void)
{
	i2c_start_wait( STS3x_ADDR + I2C_WRITE );
     8bc:	84 e9       	ldi	r24, 0x94	; 148
     8be:	0e 94 88 00 	call	0x110	; 0x110 <i2c_start_wait>
	
	i2c_write( STS3x_1_MPS_MSB );
     8c2:	81 e2       	ldi	r24, 0x21	; 33
     8c4:	0e 94 9a 00 	call	0x134	; 0x134 <i2c_write>
	i2c_write( STS3x_1_MPS_HIG_LSB );
     8c8:	80 e3       	ldi	r24, 0x30	; 48
     8ca:	0e 94 9a 00 	call	0x134	; 0x134 <i2c_write>
 	i2c_write( STS3x_FETCH_DATA_MSB );
     8ce:	80 ee       	ldi	r24, 0xE0	; 224
     8d0:	0e 94 9a 00 	call	0x134	; 0x134 <i2c_write>
 	i2c_write( STS3x_FETCH_DATA_LSB );	
     8d4:	80 e0       	ldi	r24, 0x00	; 0
     8d6:	0e 94 9a 00 	call	0x134	; 0x134 <i2c_write>
	 
	i2c_stop();
     8da:	0e 94 92 00 	call	0x124	; 0x124 <i2c_stop>
     8de:	08 95       	ret

000008e0 <__vector_13>:
ISR (UART0_RECEIVE_INTERRUPT)	
/*************************************************************************
Function: UART Receive Complete interrupt
Purpose:  called when the UART has received a character
**************************************************************************/
{
     8e0:	1f 92       	push	r1
     8e2:	0f 92       	push	r0
     8e4:	0f b6       	in	r0, 0x3f	; 63
     8e6:	0f 92       	push	r0
     8e8:	11 24       	eor	r1, r1
     8ea:	2f 93       	push	r18
     8ec:	8f 93       	push	r24
     8ee:	9f 93       	push	r25
     8f0:	ef 93       	push	r30
     8f2:	ff 93       	push	r31
    unsigned char usr;
    unsigned char lastRxError;
 
 
    /* read UART status register and UART data register */ 
    usr  = UART0_STATUS;
     8f4:	8b b1       	in	r24, 0x0b	; 11
    data = UART0_DATA;
     8f6:	2c b1       	in	r18, 0x0c	; 12
    
    /* */
#if defined( AT90_UART )
    lastRxError = (usr & (_BV(FE)|_BV(DOR)) );
#elif defined( ATMEGA_USART )
    lastRxError = (usr & (_BV(FE)|_BV(DOR)) );
     8f8:	88 71       	andi	r24, 0x18	; 24
#elif defined( AT90USB_USART )
    lastRxError = (usr & (_BV(FE1)|_BV(DOR1)) );
#endif
        
    /* calculate buffer index */ 
    tmphead = ( UART_RxHead + 1) & UART_RX_BUFFER_MASK;
     8fa:	e0 91 17 02 	lds	r30, 0x0217	; 0x800217 <UART_RxHead>
     8fe:	ef 5f       	subi	r30, 0xFF	; 255
     900:	ef 73       	andi	r30, 0x3F	; 63
    
    if ( tmphead == UART_RxTail ) {
     902:	90 91 16 02 	lds	r25, 0x0216	; 0x800216 <UART_RxTail>
     906:	e9 17       	cp	r30, r25
     908:	39 f0       	breq	.+14     	; 0x918 <__vector_13+0x38>
        /* error: receive buffer overflow */
        lastRxError = UART_BUFFER_OVERFLOW >> 8;
    }else{
        /* store new index */
        UART_RxHead = tmphead;
     90a:	e0 93 17 02 	sts	0x0217, r30	; 0x800217 <UART_RxHead>
        /* store received data in buffer */
        UART_RxBuf[tmphead] = data;
     90e:	f0 e0       	ldi	r31, 0x00	; 0
     910:	e6 5e       	subi	r30, 0xE6	; 230
     912:	fd 4f       	sbci	r31, 0xFD	; 253
     914:	20 83       	st	Z, r18
     916:	01 c0       	rjmp	.+2      	; 0x91a <__vector_13+0x3a>
    /* calculate buffer index */ 
    tmphead = ( UART_RxHead + 1) & UART_RX_BUFFER_MASK;
    
    if ( tmphead == UART_RxTail ) {
        /* error: receive buffer overflow */
        lastRxError = UART_BUFFER_OVERFLOW >> 8;
     918:	82 e0       	ldi	r24, 0x02	; 2
        /* store new index */
        UART_RxHead = tmphead;
        /* store received data in buffer */
        UART_RxBuf[tmphead] = data;
    }
    UART_LastRxError |= lastRxError;   
     91a:	90 91 15 02 	lds	r25, 0x0215	; 0x800215 <UART_LastRxError>
     91e:	89 2b       	or	r24, r25
     920:	80 93 15 02 	sts	0x0215, r24	; 0x800215 <UART_LastRxError>
}
     924:	ff 91       	pop	r31
     926:	ef 91       	pop	r30
     928:	9f 91       	pop	r25
     92a:	8f 91       	pop	r24
     92c:	2f 91       	pop	r18
     92e:	0f 90       	pop	r0
     930:	0f be       	out	0x3f, r0	; 63
     932:	0f 90       	pop	r0
     934:	1f 90       	pop	r1
     936:	18 95       	reti

00000938 <__vector_14>:
ISR (UART0_TRANSMIT_INTERRUPT)
/*************************************************************************
Function: UART Data Register Empty interrupt
Purpose:  called when the UART is ready to transmit the next byte
**************************************************************************/
{
     938:	1f 92       	push	r1
     93a:	0f 92       	push	r0
     93c:	0f b6       	in	r0, 0x3f	; 63
     93e:	0f 92       	push	r0
     940:	11 24       	eor	r1, r1
     942:	8f 93       	push	r24
     944:	9f 93       	push	r25
     946:	ef 93       	push	r30
     948:	ff 93       	push	r31
    unsigned char tmptail;

    
    if ( UART_TxHead != UART_TxTail) {
     94a:	90 91 19 02 	lds	r25, 0x0219	; 0x800219 <UART_TxHead>
     94e:	80 91 18 02 	lds	r24, 0x0218	; 0x800218 <UART_TxTail>
     952:	98 17       	cp	r25, r24
     954:	61 f0       	breq	.+24     	; 0x96e <__vector_14+0x36>
        /* calculate and store new buffer index */
        tmptail = (UART_TxTail + 1) & UART_TX_BUFFER_MASK;
     956:	e0 91 18 02 	lds	r30, 0x0218	; 0x800218 <UART_TxTail>
     95a:	ef 5f       	subi	r30, 0xFF	; 255
     95c:	ef 71       	andi	r30, 0x1F	; 31
        UART_TxTail = tmptail;
     95e:	e0 93 18 02 	sts	0x0218, r30	; 0x800218 <UART_TxTail>
        /* get one byte from buffer and write it to UART */
        UART0_DATA = UART_TxBuf[tmptail];  /* start transmission */
     962:	f0 e0       	ldi	r31, 0x00	; 0
     964:	e6 5a       	subi	r30, 0xA6	; 166
     966:	fd 4f       	sbci	r31, 0xFD	; 253
     968:	80 81       	ld	r24, Z
     96a:	8c b9       	out	0x0c, r24	; 12
     96c:	01 c0       	rjmp	.+2      	; 0x970 <__vector_14+0x38>
    }else{
        /* tx buffer empty, disable UDRE interrupt */
        UART0_CONTROL &= ~_BV(UART0_UDRIE);
     96e:	55 98       	cbi	0x0a, 5	; 10
    }
}
     970:	ff 91       	pop	r31
     972:	ef 91       	pop	r30
     974:	9f 91       	pop	r25
     976:	8f 91       	pop	r24
     978:	0f 90       	pop	r0
     97a:	0f be       	out	0x3f, r0	; 63
     97c:	0f 90       	pop	r0
     97e:	1f 90       	pop	r1
     980:	18 95       	reti

00000982 <uart_init>:
Input:    baudrate using macro UART_BAUD_SELECT()
Returns:  none
**************************************************************************/
void uart_init(unsigned int baudrate)
{
    UART_TxHead = 0;
     982:	10 92 19 02 	sts	0x0219, r1	; 0x800219 <UART_TxHead>
    UART_TxTail = 0;
     986:	10 92 18 02 	sts	0x0218, r1	; 0x800218 <UART_TxTail>
    UART_RxHead = 0;
     98a:	10 92 17 02 	sts	0x0217, r1	; 0x800217 <UART_RxHead>
    UART_RxTail = 0;
     98e:	10 92 16 02 	sts	0x0216, r1	; 0x800216 <UART_RxTail>
    /* enable UART receiver and transmmitter and receive complete interrupt */
    UART0_CONTROL = _BV(RXCIE)|_BV(RXEN)|_BV(TXEN);

#elif defined (ATMEGA_USART)
    /* Set baud rate */
    if ( baudrate & 0x8000 )
     992:	99 23       	and	r25, r25
     994:	1c f4       	brge	.+6      	; 0x99c <uart_init+0x1a>
    {
    	 UART0_STATUS = (1<<U2X);  //Enable 2x speed 
     996:	22 e0       	ldi	r18, 0x02	; 2
     998:	2b b9       	out	0x0b, r18	; 11
    	 baudrate &= ~0x8000;
     99a:	9f 77       	andi	r25, 0x7F	; 127
    }
    UBRRH = (unsigned char)(baudrate>>8);
     99c:	90 bd       	out	0x20, r25	; 32
    UBRRL = (unsigned char) baudrate;
     99e:	89 b9       	out	0x09, r24	; 9
   
    /* Enable USART receiver and transmitter and receive complete interrupt */
    UART0_CONTROL = _BV(RXCIE)|(1<<RXEN)|(1<<TXEN);
     9a0:	88 e9       	ldi	r24, 0x98	; 152
     9a2:	8a b9       	out	0x0a, r24	; 10
    
    /* Set frame format: asynchronous, 8data, no parity, 1stop bit */
    #ifdef URSEL
    UCSRC = (1<<URSEL)|(3<<UCSZ0);
     9a4:	86 e8       	ldi	r24, 0x86	; 134
     9a6:	80 bd       	out	0x20, r24	; 32
     9a8:	08 95       	ret

000009aa <uart_getc>:
{    
    unsigned char tmptail;
    unsigned char data;


    if ( UART_RxHead == UART_RxTail ) {
     9aa:	90 91 17 02 	lds	r25, 0x0217	; 0x800217 <UART_RxHead>
     9ae:	80 91 16 02 	lds	r24, 0x0216	; 0x800216 <UART_RxTail>
     9b2:	98 17       	cp	r25, r24
     9b4:	81 f0       	breq	.+32     	; 0x9d6 <uart_getc+0x2c>
        return UART_NO_DATA;   /* no data available */
    }
    
    /* calculate /store buffer index */
    tmptail = (UART_RxTail + 1) & UART_RX_BUFFER_MASK;
     9b6:	e0 91 16 02 	lds	r30, 0x0216	; 0x800216 <UART_RxTail>
     9ba:	ef 5f       	subi	r30, 0xFF	; 255
     9bc:	ef 73       	andi	r30, 0x3F	; 63
    UART_RxTail = tmptail; 
     9be:	e0 93 16 02 	sts	0x0216, r30	; 0x800216 <UART_RxTail>
    
    /* get data from receive buffer */
    data = UART_RxBuf[tmptail];
     9c2:	f0 e0       	ldi	r31, 0x00	; 0
     9c4:	e6 5e       	subi	r30, 0xE6	; 230
     9c6:	fd 4f       	sbci	r31, 0xFD	; 253
     9c8:	80 81       	ld	r24, Z
    
    data = (UART_LastRxError << 8) + data;
     9ca:	90 91 15 02 	lds	r25, 0x0215	; 0x800215 <UART_LastRxError>
    UART_LastRxError = 0;
     9ce:	10 92 15 02 	sts	0x0215, r1	; 0x800215 <UART_LastRxError>
    return data;
     9d2:	90 e0       	ldi	r25, 0x00	; 0
     9d4:	08 95       	ret
    unsigned char tmptail;
    unsigned char data;


    if ( UART_RxHead == UART_RxTail ) {
        return UART_NO_DATA;   /* no data available */
     9d6:	80 e0       	ldi	r24, 0x00	; 0
     9d8:	91 e0       	ldi	r25, 0x01	; 1
    
    data = (UART_LastRxError << 8) + data;
    UART_LastRxError = 0;
    return data;

}/* uart_getc */
     9da:	08 95       	ret

000009dc <uart_putc>:
void uart_putc(unsigned char data)
{
    unsigned char tmphead;

    
    tmphead  = (UART_TxHead + 1) & UART_TX_BUFFER_MASK;
     9dc:	20 91 19 02 	lds	r18, 0x0219	; 0x800219 <UART_TxHead>
     9e0:	2f 5f       	subi	r18, 0xFF	; 255
     9e2:	2f 71       	andi	r18, 0x1F	; 31
    
    while ( tmphead == UART_TxTail ){
     9e4:	90 91 18 02 	lds	r25, 0x0218	; 0x800218 <UART_TxTail>
     9e8:	29 17       	cp	r18, r25
     9ea:	e1 f3       	breq	.-8      	; 0x9e4 <uart_putc+0x8>
        ;/* wait for free space in buffer */
    }
    
    UART_TxBuf[tmphead] = data;
     9ec:	e2 2f       	mov	r30, r18
     9ee:	f0 e0       	ldi	r31, 0x00	; 0
     9f0:	e6 5a       	subi	r30, 0xA6	; 166
     9f2:	fd 4f       	sbci	r31, 0xFD	; 253
     9f4:	80 83       	st	Z, r24
    UART_TxHead = tmphead;
     9f6:	20 93 19 02 	sts	0x0219, r18	; 0x800219 <UART_TxHead>

    /* enable UDRE interrupt */
    UART0_CONTROL    |= _BV(UART0_UDRIE);
     9fa:	55 9a       	sbi	0x0a, 5	; 10
     9fc:	08 95       	ret

000009fe <uart_puts>:
Purpose:  transmit string to UART
Input:    string to be transmitted
Returns:  none          
**************************************************************************/
void uart_puts(const char *s )
{
     9fe:	cf 93       	push	r28
     a00:	df 93       	push	r29
     a02:	ec 01       	movw	r28, r24
    while (*s) 
     a04:	88 81       	ld	r24, Y
     a06:	88 23       	and	r24, r24
     a08:	31 f0       	breq	.+12     	; 0xa16 <uart_puts+0x18>
     a0a:	21 96       	adiw	r28, 0x01	; 1
      uart_putc(*s++);
     a0c:	0e 94 ee 04 	call	0x9dc	; 0x9dc <uart_putc>
Input:    string to be transmitted
Returns:  none          
**************************************************************************/
void uart_puts(const char *s )
{
    while (*s) 
     a10:	89 91       	ld	r24, Y+
     a12:	81 11       	cpse	r24, r1
     a14:	fb cf       	rjmp	.-10     	; 0xa0c <uart_puts+0xe>
      uart_putc(*s++);

}/* uart_puts */
     a16:	df 91       	pop	r29
     a18:	cf 91       	pop	r28
     a1a:	08 95       	ret

00000a1c <test>:
	}
	if ( tmp102.actual > tmp102.highest )
	{
		tmp102.highest = tmp102.actual;
	}		
}
     a1c:	89 e0       	ldi	r24, 0x09	; 9
     a1e:	91 e0       	ldi	r25, 0x01	; 1
     a20:	0e 94 ff 04 	call	0x9fe	; 0x9fe <uart_puts>
     a24:	80 e0       	ldi	r24, 0x00	; 0
     a26:	90 e0       	ldi	r25, 0x00	; 0
     a28:	08 95       	ret

00000a2a <timerInit>:
     a2a:	8e b5       	in	r24, 0x2e	; 46
     a2c:	89 60       	ori	r24, 0x09	; 9
     a2e:	8e bd       	out	0x2e, r24	; 46
     a30:	89 b7       	in	r24, 0x39	; 57
     a32:	80 61       	ori	r24, 0x10	; 16
     a34:	89 bf       	out	0x39, r24	; 57
     a36:	80 ed       	ldi	r24, 0xD0	; 208
     a38:	97 e0       	ldi	r25, 0x07	; 7
     a3a:	9b bd       	out	0x2b, r25	; 43
     a3c:	8a bd       	out	0x2a, r24	; 42
     a3e:	08 95       	ret

00000a40 <setTime>:

void setTime( uint8_t *buff )
{
     a40:	2f 92       	push	r2
     a42:	3f 92       	push	r3
     a44:	4f 92       	push	r4
     a46:	5f 92       	push	r5
     a48:	6f 92       	push	r6
     a4a:	7f 92       	push	r7
     a4c:	8f 92       	push	r8
     a4e:	9f 92       	push	r9
     a50:	af 92       	push	r10
     a52:	bf 92       	push	r11
     a54:	cf 92       	push	r12
     a56:	df 92       	push	r13
     a58:	ef 92       	push	r14
     a5a:	ff 92       	push	r15
     a5c:	0f 93       	push	r16
     a5e:	1f 93       	push	r17
     a60:	cf 93       	push	r28
     a62:	df 93       	push	r29
     a64:	ec 01       	movw	r28, r24
	#define TIME_OFFSET 35

	uint32_t _delay = 0;
	
	rtcGetData(&rtc);
     a66:	83 ec       	ldi	r24, 0xC3	; 195
     a68:	92 e0       	ldi	r25, 0x02	; 2
     a6a:	0e 94 0b 04 	call	0x816	; 0x816 <rtcGetData>
 	buff[0] = bcdToDec( rtc.hour );
     a6e:	03 ec       	ldi	r16, 0xC3	; 195
     a70:	12 e0       	ldi	r17, 0x02	; 2
     a72:	f8 01       	movw	r30, r16
     a74:	82 81       	ldd	r24, Z+2	; 0x02
     a76:	0e 94 56 03 	call	0x6ac	; 0x6ac <bcdToDec>
     a7a:	88 83       	st	Y, r24
 	buff[1] = bcdToDec( rtc.minute );
     a7c:	f8 01       	movw	r30, r16
     a7e:	81 81       	ldd	r24, Z+1	; 0x01
     a80:	0e 94 56 03 	call	0x6ac	; 0x6ac <bcdToDec>
     a84:	89 83       	std	Y+1, r24	; 0x01
	
	for ( uint8_t x = 0 ; x < 2 ; x++ )
	{
		encoder.result = 0;
     a86:	10 92 97 00 	sts	0x0097, r1	; 0x800097 <encoder+0x10>

void setTime( uint8_t *buff )
{
	#define TIME_OFFSET 35

	uint32_t _delay = 0;
     a8a:	40 e0       	ldi	r20, 0x00	; 0
     a8c:	50 e0       	ldi	r21, 0x00	; 0
     a8e:	ba 01       	movw	r22, r20
	{
		encoder.result = 0;
		
		while (1)
		{
			buff[x] += encoder.result;
     a90:	07 e8       	ldi	r16, 0x87	; 135
     a92:	10 e0       	ldi	r17, 0x00	; 0
				_delay = 0;
			}
			
			switch(x)
			{
				case 0: {buff[x] = checkMaxValue(buff[x],24);}break;
     a94:	21 2c       	mov	r2, r1
				case 1: {buff[x] = checkMaxValue(buff[x],59);}break;
			}
			
			if ( _delay++ < 10000 )
     a96:	41 2c       	mov	r4, r1
     a98:	51 2c       	mov	r5, r1
     a9a:	31 2c       	mov	r3, r1
			buff[x] += encoder.result;
			
			if (encoder.result)
			{
				encoder.result = 0;
				_delay = 0;
     a9c:	61 2c       	mov	r6, r1
     a9e:	71 2c       	mov	r7, r1
     aa0:	81 2c       	mov	r8, r1
     aa2:	91 2c       	mov	r9, r1

uint16_t checkMaxValue( uint16_t val , uint16_t max )
{
	if( val > max )
	{
		return 0;
     aa4:	a1 2c       	mov	r10, r1
     aa6:	b1 2c       	mov	r11, r1
	{
		encoder.result = 0;
		
		while (1)
		{
			buff[x] += encoder.result;
     aa8:	f8 01       	movw	r30, r16
     aaa:	80 89       	ldd	r24, Z+16	; 0x10
     aac:	98 81       	ld	r25, Y
     aae:	89 0f       	add	r24, r25
     ab0:	88 83       	st	Y, r24
			
			if (encoder.result)
     ab2:	80 89       	ldd	r24, Z+16	; 0x10
     ab4:	81 11       	cpse	r24, r1
     ab6:	26 c0       	rjmp	.+76     	; 0xb04 <setTime+0xc4>
     ab8:	10 c0       	rjmp	.+32     	; 0xada <setTime+0x9a>
				case 1: {buff[x] = checkMaxValue(buff[x],59);}break;
			}
			
			if ( _delay++ < 10000 )
			{
				timeDecToRam( buff[0] , buff[1] );
     aba:	69 81       	ldd	r22, Y+1	; 0x01
     abc:	0e 94 58 02 	call	0x4b0	; 0x4b0 <timeDecToRam>
     ac0:	2e c0       	rjmp	.+92     	; 0xb1e <setTime+0xde>
			}
			else if ( _delay > 40000 )
     ac2:	f1 e4       	ldi	r31, 0x41	; 65
     ac4:	cf 16       	cp	r12, r31
     ac6:	fc e9       	ldi	r31, 0x9C	; 156
     ac8:	df 06       	cpc	r13, r31
     aca:	e1 04       	cpc	r14, r1
     acc:	f1 04       	cpc	r15, r1
     ace:	38 f1       	brcs	.+78     	; 0xb1e <setTime+0xde>
			{
				switch(x)
				{
					case 0:
					{
						timeDecToRam( DISP_SPACE_CHAR , buff[1] );
     ad0:	69 81       	ldd	r22, Y+1	; 0x01
     ad2:	8b e7       	ldi	r24, 0x7B	; 123
     ad4:	0e 94 58 02 	call	0x4b0	; 0x4b0 <timeDecToRam>
     ad8:	22 c0       	rjmp	.+68     	; 0xb1e <setTime+0xde>
				_delay = 0;
			}
			
			switch(x)
			{
				case 0: {buff[x] = checkMaxValue(buff[x],24);}break;
     ada:	28 81       	ld	r18, Y
     adc:	30 e0       	ldi	r19, 0x00	; 0
	OCR1A   = ( (uint16_t)( F_CPU / 1 / 8000 ) );	
}

uint16_t checkMaxValue( uint16_t val , uint16_t max )
{
	if( val > max )
     ade:	29 31       	cpi	r18, 0x19	; 25
     ae0:	31 05       	cpc	r19, r1
     ae2:	08 f0       	brcs	.+2      	; 0xae6 <setTime+0xa6>
	{
		return 0;
     ae4:	2a 2d       	mov	r18, r10
				_delay = 0;
			}
			
			switch(x)
			{
				case 0: {buff[x] = checkMaxValue(buff[x],24);}break;
     ae6:	82 2f       	mov	r24, r18
     ae8:	28 83       	st	Y, r18
				case 1: {buff[x] = checkMaxValue(buff[x],59);}break;
			}
			
			if ( _delay++ < 10000 )
     aea:	6a 01       	movw	r12, r20
     aec:	7b 01       	movw	r14, r22
     aee:	2f ef       	ldi	r18, 0xFF	; 255
     af0:	c2 1a       	sub	r12, r18
     af2:	d2 0a       	sbc	r13, r18
     af4:	e2 0a       	sbc	r14, r18
     af6:	f2 0a       	sbc	r15, r18
     af8:	40 31       	cpi	r20, 0x10	; 16
     afa:	57 42       	sbci	r21, 0x27	; 39
     afc:	61 05       	cpc	r22, r1
     afe:	71 05       	cpc	r23, r1
     b00:	00 f7       	brcc	.-64     	; 0xac2 <setTime+0x82>
     b02:	db cf       	rjmp	.-74     	; 0xaba <setTime+0x7a>
		{
			buff[x] += encoder.result;
			
			if (encoder.result)
			{
				encoder.result = 0;
     b04:	f8 01       	movw	r30, r16
     b06:	10 8a       	std	Z+16, r1	; 0x10
				_delay = 0;
			}
			
			switch(x)
			{
				case 0: {buff[x] = checkMaxValue(buff[x],24);}break;
     b08:	28 81       	ld	r18, Y
     b0a:	30 e0       	ldi	r19, 0x00	; 0
	OCR1A   = ( (uint16_t)( F_CPU / 1 / 8000 ) );	
}

uint16_t checkMaxValue( uint16_t val , uint16_t max )
{
	if( val > max )
     b0c:	29 31       	cpi	r18, 0x19	; 25
     b0e:	31 05       	cpc	r19, r1
     b10:	08 f0       	brcs	.+2      	; 0xb14 <setTime+0xd4>
     b12:	84 c0       	rjmp	.+264    	; 0xc1c <setTime+0x1dc>
			buff[x] += encoder.result;
			
			if (encoder.result)
			{
				encoder.result = 0;
				_delay = 0;
     b14:	46 2d       	mov	r20, r6
     b16:	57 2d       	mov	r21, r7
     b18:	68 2d       	mov	r22, r8
     b1a:	79 2d       	mov	r23, r9
     b1c:	e4 cf       	rjmp	.-56     	; 0xae6 <setTime+0xa6>
	OCR1A   = ( (uint16_t)( F_CPU / 1 / 8000 ) );	
}

uint16_t checkMaxValue( uint16_t val , uint16_t max )
{
	if( val > max )
     b1e:	f9 ee       	ldi	r31, 0xE9	; 233
     b20:	cf 16       	cp	r12, r31
     b22:	fd ef       	ldi	r31, 0xFD	; 253
     b24:	df 06       	cpc	r13, r31
     b26:	10 f0       	brcs	.+4      	; 0xb2c <setTime+0xec>
	{
		return 0;
     b28:	ca 2c       	mov	r12, r10
     b2a:	db 2c       	mov	r13, r11
					{
						timeDecToRam( buff[0] , DISP_SPACE_CHAR );
					}break;
				}
			}
			_delay = checkMaxValue(_delay,65000);
     b2c:	a6 01       	movw	r20, r12
     b2e:	60 e0       	ldi	r22, 0x00	; 0
     b30:	70 e0       	ldi	r23, 0x00	; 0

			if(!(ENC_SWITCH_PORT & 1<<ENC_SWITCH_bp))
     b32:	b4 99       	sbic	0x16, 4	; 22
     b34:	b9 cf       	rjmp	.-142    	; 0xaa8 <setTime+0x68>
	#else
		//round up by default
		__ticks_dc = (uint32_t)(ceil(fabs(__tmp)));
	#endif

	__builtin_avr_delay_cycles(__ticks_dc);
     b36:	2f e7       	ldi	r18, 0x7F	; 127
     b38:	88 e3       	ldi	r24, 0x38	; 56
     b3a:	91 e0       	ldi	r25, 0x01	; 1
     b3c:	21 50       	subi	r18, 0x01	; 1
     b3e:	80 40       	sbci	r24, 0x00	; 0
     b40:	90 40       	sbci	r25, 0x00	; 0
     b42:	e1 f7       	brne	.-8      	; 0xb3c <setTime+0xfc>
     b44:	00 c0       	rjmp	.+0      	; 0xb46 <setTime+0x106>
     b46:	00 00       	nop
			{
				_delay_ms(25);
				if ((ENC_SWITCH_PORT & 1<<ENC_SWITCH_bp))
     b48:	b4 9b       	sbis	0x16, 4	; 22
     b4a:	ae cf       	rjmp	.-164    	; 0xaa8 <setTime+0x68>
 	buff[0] = bcdToDec( rtc.hour );
 	buff[1] = bcdToDec( rtc.minute );
	
	for ( uint8_t x = 0 ; x < 2 ; x++ )
	{
		encoder.result = 0;
     b4c:	10 92 97 00 	sts	0x0097, r1	; 0x800097 <encoder+0x10>
		
		while (1)
		{
			buff[x] += encoder.result;
     b50:	07 e8       	ldi	r16, 0x87	; 135
     b52:	10 e0       	ldi	r17, 0x00	; 0
			
			if (encoder.result)
			{
				encoder.result = 0;
				_delay = 0;
     b54:	61 2c       	mov	r6, r1
     b56:	71 2c       	mov	r7, r1
     b58:	81 2c       	mov	r8, r1
     b5a:	91 2c       	mov	r9, r1

uint16_t checkMaxValue( uint16_t val , uint16_t max )
{
	if( val > max )
	{
		return 0;
     b5c:	a1 2c       	mov	r10, r1
     b5e:	b1 2c       	mov	r11, r1
	{
		encoder.result = 0;
		
		while (1)
		{
			buff[x] += encoder.result;
     b60:	f8 01       	movw	r30, r16
     b62:	80 89       	ldd	r24, Z+16	; 0x10
     b64:	99 81       	ldd	r25, Y+1	; 0x01
     b66:	89 0f       	add	r24, r25
     b68:	89 83       	std	Y+1, r24	; 0x01
			
			if (encoder.result)
     b6a:	80 89       	ldd	r24, Z+16	; 0x10
     b6c:	88 23       	and	r24, r24
     b6e:	29 f0       	breq	.+10     	; 0xb7a <setTime+0x13a>
			{
				encoder.result = 0;
     b70:	10 8a       	std	Z+16, r1	; 0x10
				_delay = 0;
     b72:	46 2d       	mov	r20, r6
     b74:	57 2d       	mov	r21, r7
     b76:	68 2d       	mov	r22, r8
     b78:	79 2d       	mov	r23, r9
			}
			
			switch(x)
			{
				case 0: {buff[x] = checkMaxValue(buff[x],24);}break;
				case 1: {buff[x] = checkMaxValue(buff[x],59);}break;
     b7a:	89 81       	ldd	r24, Y+1	; 0x01
     b7c:	90 e0       	ldi	r25, 0x00	; 0
	OCR1A   = ( (uint16_t)( F_CPU / 1 / 8000 ) );	
}

uint16_t checkMaxValue( uint16_t val , uint16_t max )
{
	if( val > max )
     b7e:	8c 33       	cpi	r24, 0x3C	; 60
     b80:	91 05       	cpc	r25, r1
     b82:	08 f0       	brcs	.+2      	; 0xb86 <setTime+0x146>
	{
		return 0;
     b84:	8a 2d       	mov	r24, r10
			}
			
			switch(x)
			{
				case 0: {buff[x] = checkMaxValue(buff[x],24);}break;
				case 1: {buff[x] = checkMaxValue(buff[x],59);}break;
     b86:	89 83       	std	Y+1, r24	; 0x01
			}
			
			if ( _delay++ < 10000 )
     b88:	6a 01       	movw	r12, r20
     b8a:	7b 01       	movw	r14, r22
     b8c:	ff ef       	ldi	r31, 0xFF	; 255
     b8e:	cf 1a       	sub	r12, r31
     b90:	df 0a       	sbc	r13, r31
     b92:	ef 0a       	sbc	r14, r31
     b94:	ff 0a       	sbc	r15, r31
     b96:	40 31       	cpi	r20, 0x10	; 16
     b98:	57 42       	sbci	r21, 0x27	; 39
     b9a:	61 05       	cpc	r22, r1
     b9c:	71 05       	cpc	r23, r1
     b9e:	28 f4       	brcc	.+10     	; 0xbaa <setTime+0x16a>
			{
				timeDecToRam( buff[0] , buff[1] );
     ba0:	68 2f       	mov	r22, r24
     ba2:	88 81       	ld	r24, Y
     ba4:	0e 94 58 02 	call	0x4b0	; 0x4b0 <timeDecToRam>
     ba8:	0b c0       	rjmp	.+22     	; 0xbc0 <setTime+0x180>
			}
			else if ( _delay > 40000 )
     baa:	81 e4       	ldi	r24, 0x41	; 65
     bac:	c8 16       	cp	r12, r24
     bae:	8c e9       	ldi	r24, 0x9C	; 156
     bb0:	d8 06       	cpc	r13, r24
     bb2:	e1 04       	cpc	r14, r1
     bb4:	f1 04       	cpc	r15, r1
     bb6:	20 f0       	brcs	.+8      	; 0xbc0 <setTime+0x180>
						timeDecToRam( DISP_SPACE_CHAR , buff[1] );
					}break;
					
					case 1:
					{
						timeDecToRam( buff[0] , DISP_SPACE_CHAR );
     bb8:	6b e7       	ldi	r22, 0x7B	; 123
     bba:	88 81       	ld	r24, Y
     bbc:	0e 94 58 02 	call	0x4b0	; 0x4b0 <timeDecToRam>
	OCR1A   = ( (uint16_t)( F_CPU / 1 / 8000 ) );	
}

uint16_t checkMaxValue( uint16_t val , uint16_t max )
{
	if( val > max )
     bc0:	99 ee       	ldi	r25, 0xE9	; 233
     bc2:	c9 16       	cp	r12, r25
     bc4:	9d ef       	ldi	r25, 0xFD	; 253
     bc6:	d9 06       	cpc	r13, r25
     bc8:	10 f0       	brcs	.+4      	; 0xbce <setTime+0x18e>
	{
		return 0;
     bca:	ca 2c       	mov	r12, r10
     bcc:	db 2c       	mov	r13, r11
					{
						timeDecToRam( buff[0] , DISP_SPACE_CHAR );
					}break;
				}
			}
			_delay = checkMaxValue(_delay,65000);
     bce:	a6 01       	movw	r20, r12
     bd0:	60 e0       	ldi	r22, 0x00	; 0
     bd2:	70 e0       	ldi	r23, 0x00	; 0

			if(!(ENC_SWITCH_PORT & 1<<ENC_SWITCH_bp))
     bd4:	b4 99       	sbic	0x16, 4	; 22
     bd6:	c4 cf       	rjmp	.-120    	; 0xb60 <setTime+0x120>
     bd8:	ef e7       	ldi	r30, 0x7F	; 127
     bda:	f8 e3       	ldi	r31, 0x38	; 56
     bdc:	21 e0       	ldi	r18, 0x01	; 1
     bde:	e1 50       	subi	r30, 0x01	; 1
     be0:	f0 40       	sbci	r31, 0x00	; 0
     be2:	20 40       	sbci	r18, 0x00	; 0
     be4:	e1 f7       	brne	.-8      	; 0xbde <setTime+0x19e>
     be6:	00 c0       	rjmp	.+0      	; 0xbe8 <setTime+0x1a8>
     be8:	00 00       	nop
			{
				_delay_ms(25);
				if ((ENC_SWITCH_PORT & 1<<ENC_SWITCH_bp))
     bea:	b4 9b       	sbis	0x16, 4	; 22
     bec:	b9 cf       	rjmp	.-142    	; 0xb60 <setTime+0x120>
		}
	}
	
	for ( uint8_t i = 0 ; i < 4 ; i++)
	{
		disp.dig[i] = ' ';
     bee:	e9 e7       	ldi	r30, 0x79	; 121
     bf0:	f0 e0       	ldi	r31, 0x00	; 0
     bf2:	80 e2       	ldi	r24, 0x20	; 32
     bf4:	80 83       	st	Z, r24
     bf6:	81 83       	std	Z+1, r24	; 0x01
     bf8:	82 83       	std	Z+2, r24	; 0x02
     bfa:	83 83       	std	Z+3, r24	; 0x03
	}
	
	sys.i2cBusy = 1;
     bfc:	0e eb       	ldi	r16, 0xBE	; 190
     bfe:	12 e0       	ldi	r17, 0x02	; 2
     c00:	f8 01       	movw	r30, r16
     c02:	80 81       	ld	r24, Z
     c04:	81 60       	ori	r24, 0x01	; 1
     c06:	80 83       	st	Z, r24
	rtcSetTime( buff[0] , buff[1] , 0 );
     c08:	40 e0       	ldi	r20, 0x00	; 0
     c0a:	69 81       	ldd	r22, Y+1	; 0x01
     c0c:	88 81       	ld	r24, Y
     c0e:	0e 94 cb 03 	call	0x796	; 0x796 <rtcSetTime>
	sys.i2cBusy = 0;
     c12:	f8 01       	movw	r30, r16
     c14:	80 81       	ld	r24, Z
     c16:	8e 7f       	andi	r24, 0xFE	; 254
     c18:	80 83       	st	Z, r24
}
     c1a:	06 c0       	rjmp	.+12     	; 0xc28 <setTime+0x1e8>
				_delay = 0;
			}
			
			switch(x)
			{
				case 0: {buff[x] = checkMaxValue(buff[x],24);}break;
     c1c:	18 82       	st	Y, r1
     c1e:	82 2d       	mov	r24, r2
				case 1: {buff[x] = checkMaxValue(buff[x],59);}break;
			}
			
			if ( _delay++ < 10000 )
     c20:	cc 24       	eor	r12, r12
     c22:	c3 94       	inc	r12
     c24:	d4 2c       	mov	r13, r4
     c26:	49 cf       	rjmp	.-366    	; 0xaba <setTime+0x7a>
	}
	
	sys.i2cBusy = 1;
	rtcSetTime( buff[0] , buff[1] , 0 );
	sys.i2cBusy = 0;
}
     c28:	df 91       	pop	r29
     c2a:	cf 91       	pop	r28
     c2c:	1f 91       	pop	r17
     c2e:	0f 91       	pop	r16
     c30:	ff 90       	pop	r15
     c32:	ef 90       	pop	r14
     c34:	df 90       	pop	r13
     c36:	cf 90       	pop	r12
     c38:	bf 90       	pop	r11
     c3a:	af 90       	pop	r10
     c3c:	9f 90       	pop	r9
     c3e:	8f 90       	pop	r8
     c40:	7f 90       	pop	r7
     c42:	6f 90       	pop	r6
     c44:	5f 90       	pop	r5
     c46:	4f 90       	pop	r4
     c48:	3f 90       	pop	r3
     c4a:	2f 90       	pop	r2
     c4c:	08 95       	ret

00000c4e <checkForSetTime>:

void checkForSetTime( void )
{
     c4e:	cf 93       	push	r28
     c50:	df 93       	push	r29
     c52:	00 d0       	rcall	.+0      	; 0xc54 <checkForSetTime+0x6>
     c54:	1f 92       	push	r1
     c56:	cd b7       	in	r28, 0x3d	; 61
     c58:	de b7       	in	r29, 0x3e	; 62
	uint8_t buff[3] = "";
     c5a:	1a 82       	std	Y+2, r1	; 0x02
     c5c:	19 82       	std	Y+1, r1	; 0x01
     c5e:	1b 82       	std	Y+3, r1	; 0x03
	
	if ( ! (ENC_SWITCH_PORT & (1<<ENC_SWITCH_bp) ) )
     c60:	b4 99       	sbic	0x16, 4	; 22
     c62:	2f c0       	rjmp	.+94     	; 0xcc2 <checkForSetTime+0x74>
     c64:	2f ef       	ldi	r18, 0xFF	; 255
     c66:	31 ee       	ldi	r19, 0xE1	; 225
     c68:	44 e0       	ldi	r20, 0x04	; 4
     c6a:	21 50       	subi	r18, 0x01	; 1
     c6c:	30 40       	sbci	r19, 0x00	; 0
     c6e:	40 40       	sbci	r20, 0x00	; 0
     c70:	e1 f7       	brne	.-8      	; 0xc6a <checkForSetTime+0x1c>
     c72:	00 c0       	rjmp	.+0      	; 0xc74 <checkForSetTime+0x26>
     c74:	00 00       	nop
	{
		_delay_ms(100);
		while ( ( ! (ENC_SWITCH_PORT & 1<<ENC_SWITCH_bp) ) )
     c76:	b4 99       	sbic	0x16, 4	; 22
     c78:	20 c0       	rjmp	.+64     	; 0xcba <checkForSetTime+0x6c>
		{
			for ( uint8_t i = 0 ; i < 4 ; i++ )
			{
				disp.dig[i] = '0';
     c7a:	e9 e7       	ldi	r30, 0x79	; 121
     c7c:	f0 e0       	ldi	r31, 0x00	; 0
     c7e:	90 e3       	ldi	r25, 0x30	; 48
			
			_delay_ms(150);
			
			for ( uint8_t i = 0 ; i < 4 ; i++ )
			{
				disp.dig[i] = ' ';
     c80:	80 e2       	ldi	r24, 0x20	; 32
		_delay_ms(100);
		while ( ( ! (ENC_SWITCH_PORT & 1<<ENC_SWITCH_bp) ) )
		{
			for ( uint8_t i = 0 ; i < 4 ; i++ )
			{
				disp.dig[i] = '0';
     c82:	90 83       	st	Z, r25
     c84:	91 83       	std	Z+1, r25	; 0x01
     c86:	92 83       	std	Z+2, r25	; 0x02
     c88:	93 83       	std	Z+3, r25	; 0x03
     c8a:	2f ef       	ldi	r18, 0xFF	; 255
     c8c:	32 e5       	ldi	r19, 0x52	; 82
     c8e:	47 e0       	ldi	r20, 0x07	; 7
     c90:	21 50       	subi	r18, 0x01	; 1
     c92:	30 40       	sbci	r19, 0x00	; 0
     c94:	40 40       	sbci	r20, 0x00	; 0
     c96:	e1 f7       	brne	.-8      	; 0xc90 <checkForSetTime+0x42>
     c98:	00 c0       	rjmp	.+0      	; 0xc9a <checkForSetTime+0x4c>
     c9a:	00 00       	nop
			
			_delay_ms(150);
			
			for ( uint8_t i = 0 ; i < 4 ; i++ )
			{
				disp.dig[i] = ' ';
     c9c:	80 83       	st	Z, r24
     c9e:	81 83       	std	Z+1, r24	; 0x01
     ca0:	82 83       	std	Z+2, r24	; 0x02
     ca2:	83 83       	std	Z+3, r24	; 0x03
     ca4:	2f ef       	ldi	r18, 0xFF	; 255
     ca6:	32 e5       	ldi	r19, 0x52	; 82
     ca8:	47 e0       	ldi	r20, 0x07	; 7
     caa:	21 50       	subi	r18, 0x01	; 1
     cac:	30 40       	sbci	r19, 0x00	; 0
     cae:	40 40       	sbci	r20, 0x00	; 0
     cb0:	e1 f7       	brne	.-8      	; 0xcaa <checkForSetTime+0x5c>
     cb2:	00 c0       	rjmp	.+0      	; 0xcb4 <checkForSetTime+0x66>
     cb4:	00 00       	nop
	uint8_t buff[3] = "";
	
	if ( ! (ENC_SWITCH_PORT & (1<<ENC_SWITCH_bp) ) )
	{
		_delay_ms(100);
		while ( ( ! (ENC_SWITCH_PORT & 1<<ENC_SWITCH_bp) ) )
     cb6:	b4 9b       	sbis	0x16, 4	; 22
     cb8:	e4 cf       	rjmp	.-56     	; 0xc82 <checkForSetTime+0x34>
			}
			
			_delay_ms(150);
			
		}
		setTime( buff );
     cba:	ce 01       	movw	r24, r28
     cbc:	01 96       	adiw	r24, 0x01	; 1
     cbe:	0e 94 20 05 	call	0xa40	; 0xa40 <setTime>
	}	
}
     cc2:	0f 90       	pop	r0
     cc4:	0f 90       	pop	r0
     cc6:	0f 90       	pop	r0
     cc8:	df 91       	pop	r29
     cca:	cf 91       	pop	r28
     ccc:	08 95       	ret

00000cce <setRelais>:
void setRelais(uint8_t Kx)
{	
	/*
	*	Setze Relais
	*/
	RELAIS_PORT1_PORT = (Kx<<2);
     cce:	98 2f       	mov	r25, r24
     cd0:	99 0f       	add	r25, r25
     cd2:	99 0f       	add	r25, r25
     cd4:	92 bb       	out	0x12, r25	; 18
	RELAIS_PORT2_PORT = ((Kx&0xC0)>>4);
     cd6:	80 7c       	andi	r24, 0xC0	; 192
     cd8:	90 e0       	ldi	r25, 0x00	; 0
     cda:	95 95       	asr	r25
     cdc:	87 95       	ror	r24
     cde:	95 95       	asr	r25
     ce0:	87 95       	ror	r24
     ce2:	95 95       	asr	r25
     ce4:	87 95       	ror	r24
     ce6:	95 95       	asr	r25
     ce8:	87 95       	ror	r24
     cea:	85 bb       	out	0x15, r24	; 21
     cec:	08 95       	ret

00000cee <eepLoad>:
}

void eepLoad( eep_t *e )
{
     cee:	cf 93       	push	r28
     cf0:	df 93       	push	r29
     cf2:	ec 01       	movw	r28, r24
	if ( eeprom_read_byte( &e->isInit ) != 0xA2 )
     cf4:	0e 94 b0 09 	call	0x1360	; 0x1360 <eeprom_read_byte>
     cf8:	82 3a       	cpi	r24, 0xA2	; 162
     cfa:	39 f0       	breq	.+14     	; 0xd0a <eepLoad+0x1c>
	{
		eepRAM.isInit = 0x00;
     cfc:	10 92 cf 02 	sts	0x02CF, r1	; 0x8002cf <eepRAM>
		eeprom_write_byte( &e->isInit , 0xA2 );
     d00:	62 ea       	ldi	r22, 0xA2	; 162
     d02:	ce 01       	movw	r24, r28
     d04:	0e 94 b8 09 	call	0x1370	; 0x1370 <eeprom_write_byte>
     d08:	03 c0       	rjmp	.+6      	; 0xd10 <eepLoad+0x22>
	}
	else
	{
		eepRAM.isInit = 0x01;
     d0a:	81 e0       	ldi	r24, 0x01	; 1
     d0c:	80 93 cf 02 	sts	0x02CF, r24	; 0x8002cf <eepRAM>
	}
}
     d10:	df 91       	pop	r29
     d12:	cf 91       	pop	r28
     d14:	08 95       	ret

00000d16 <scrollMessage>:

void scrollMessage( char *msg , uint16_t delay_ms , uint8_t wait )
{
     d16:	9f 92       	push	r9
     d18:	af 92       	push	r10
     d1a:	bf 92       	push	r11
     d1c:	cf 92       	push	r12
     d1e:	df 92       	push	r13
     d20:	ef 92       	push	r14
     d22:	ff 92       	push	r15
     d24:	0f 93       	push	r16
     d26:	1f 93       	push	r17
     d28:	cf 93       	push	r28
     d2a:	df 93       	push	r29
     d2c:	8c 01       	movw	r16, r24
     d2e:	7b 01       	movw	r14, r22
     d30:	d4 2e       	mov	r13, r20
	uint8_t leng = strlen( msg );
     d32:	fc 01       	movw	r30, r24
     d34:	01 90       	ld	r0, Z+
     d36:	00 20       	and	r0, r0
     d38:	e9 f7       	brne	.-6      	; 0xd34 <scrollMessage+0x1e>
     d3a:	31 97       	sbiw	r30, 0x01	; 1
     d3c:	5f 01       	movw	r10, r30
     d3e:	a8 1a       	sub	r10, r24
     d40:	b9 0a       	sbc	r11, r25
	static int8_t pos = -DIGITS;
	uint8_t w_ = wait;
	
	selectFont( (char**) charMap );
     d42:	8d ea       	ldi	r24, 0xAD	; 173
     d44:	90 e0       	ldi	r25, 0x00	; 0
     d46:	0e 94 37 02 	call	0x46e	; 0x46e <selectFont>
     d4a:	c0 90 80 00 	lds	r12, 0x0080	; 0x800080 <pos.2393>
	
	do 
	{
		if ( sys.scroll >= delay_ms && !sys.scrollIsRdy )
     d4e:	ce eb       	ldi	r28, 0xBE	; 190
     d50:	d2 e0       	ldi	r29, 0x02	; 2
			{
				if ( (pos + ramPos) < 0 )
				{
					disp.dig[ramPos] = ' '; // Leerzeichen
				}
				else if ( (pos + ramPos) > leng - 1 )
     d52:	bb 24       	eor	r11, r11
     d54:	b5 01       	movw	r22, r10
     d56:	61 50       	subi	r22, 0x01	; 1
     d58:	71 09       	sbc	r23, r1
				{
					disp.dig[ramPos] = ' '; // Leerzeichen
     d5a:	68 94       	set
     d5c:	99 24       	eor	r9, r9
     d5e:	95 f8       	bld	r9, 5
	
	selectFont( (char**) charMap );
	
	do 
	{
		if ( sys.scroll >= delay_ms && !sys.scrollIsRdy )
     d60:	8a 81       	ldd	r24, Y+2	; 0x02
     d62:	9b 81       	ldd	r25, Y+3	; 0x03
     d64:	8e 15       	cp	r24, r14
     d66:	9f 05       	cpc	r25, r15
     d68:	80 f1       	brcs	.+96     	; 0xdca <scrollMessage+0xb4>
     d6a:	8c 81       	ldd	r24, Y+4	; 0x04
     d6c:	81 11       	cpse	r24, r1
     d6e:	2d c0       	rjmp	.+90     	; 0xdca <scrollMessage+0xb4>
		{
			for ( int8_t ramPos = 0 ; ramPos < DIGITS ; ramPos++ )
			{
				if ( (pos + ramPos) < 0 )
     d70:	4c 2d       	mov	r20, r12
     d72:	0c 2c       	mov	r0, r12
     d74:	00 0c       	add	r0, r0
     d76:	55 0b       	sbc	r21, r21
     d78:	a9 e7       	ldi	r26, 0x79	; 121
     d7a:	b0 e0       	ldi	r27, 0x00	; 0
     d7c:	f8 01       	movw	r30, r16
     d7e:	e4 0f       	add	r30, r20
     d80:	f5 1f       	adc	r31, r21
     d82:	9a 01       	movw	r18, r20
     d84:	2c 5f       	subi	r18, 0xFC	; 252
     d86:	3f 4f       	sbci	r19, 0xFF	; 255
     d88:	20 0f       	add	r18, r16
     d8a:	31 1f       	adc	r19, r17
     d8c:	cf 01       	movw	r24, r30
     d8e:	80 1b       	sub	r24, r16
     d90:	91 0b       	sbc	r25, r17
     d92:	12 f4       	brpl	.+4      	; 0xd98 <scrollMessage+0x82>
				{
					disp.dig[ramPos] = ' '; // Leerzeichen
     d94:	9c 92       	st	X, r9
     d96:	07 c0       	rjmp	.+14     	; 0xda6 <scrollMessage+0x90>
				}
				else if ( (pos + ramPos) > leng - 1 )
     d98:	68 17       	cp	r22, r24
     d9a:	79 07       	cpc	r23, r25
     d9c:	14 f4       	brge	.+4      	; 0xda2 <scrollMessage+0x8c>
				{
					disp.dig[ramPos] = ' '; // Leerzeichen
     d9e:	9c 92       	st	X, r9
     da0:	02 c0       	rjmp	.+4      	; 0xda6 <scrollMessage+0x90>
				}
				else
				{
					disp.dig[ramPos] = msg[ ramPos + pos ];
     da2:	80 81       	ld	r24, Z
     da4:	8c 93       	st	X, r24
     da6:	11 96       	adiw	r26, 0x01	; 1
     da8:	31 96       	adiw	r30, 0x01	; 1
	
	do 
	{
		if ( sys.scroll >= delay_ms && !sys.scrollIsRdy )
		{
			for ( int8_t ramPos = 0 ; ramPos < DIGITS ; ramPos++ )
     daa:	e2 17       	cp	r30, r18
     dac:	f3 07       	cpc	r31, r19
     dae:	71 f7       	brne	.-36     	; 0xd8c <scrollMessage+0x76>
				{
					disp.dig[ramPos] = msg[ ramPos + pos ];
				}
			}

			if( pos == leng )
     db0:	4a 15       	cp	r20, r10
     db2:	5b 05       	cpc	r21, r11
     db4:	39 f4       	brne	.+14     	; 0xdc4 <scrollMessage+0xae>
			{
				pos = -DIGITS;
     db6:	8c ef       	ldi	r24, 0xFC	; 252
     db8:	80 93 80 00 	sts	0x0080, r24	; 0x800080 <pos.2393>
				sys.scrollIsRdy = 1;
     dbc:	81 e0       	ldi	r24, 0x01	; 1
     dbe:	80 93 c2 02 	sts	0x02C2, r24	; 0x8002c2 <sys+0x4>
				w_ = 0;
				break;
     dc2:	07 c0       	rjmp	.+14     	; 0xdd2 <scrollMessage+0xbc>
			}
			else
			{
				pos += 1;
     dc4:	c3 94       	inc	r12
			}	
		
			sys.scroll	= 0;
     dc6:	1b 82       	std	Y+3, r1	; 0x03
     dc8:	1a 82       	std	Y+2, r1	; 0x02
		}		
	} while ( w_ );
     dca:	d1 10       	cpse	r13, r1
     dcc:	c9 cf       	rjmp	.-110    	; 0xd60 <scrollMessage+0x4a>
     dce:	c0 92 80 00 	sts	0x0080, r12	; 0x800080 <pos.2393>
}
     dd2:	df 91       	pop	r29
     dd4:	cf 91       	pop	r28
     dd6:	1f 91       	pop	r17
     dd8:	0f 91       	pop	r16
     dda:	ff 90       	pop	r15
     ddc:	ef 90       	pop	r14
     dde:	df 90       	pop	r13
     de0:	cf 90       	pop	r12
     de2:	bf 90       	pop	r11
     de4:	af 90       	pop	r10
     de6:	9f 90       	pop	r9
     de8:	08 95       	ret

00000dea <testHardware>:

void testHardware( void )
{
     dea:	cf 92       	push	r12
     dec:	df 92       	push	r13
     dee:	ef 92       	push	r14
     df0:	ff 92       	push	r15
     df2:	0f 93       	push	r16
     df4:	1f 93       	push	r17
     df6:	cf 93       	push	r28
     df8:	df 93       	push	r29
	uint8_t tmp = 0;

	selectFont( (char**) charMap );
     dfa:	8d ea       	ldi	r24, 0xAD	; 173
     dfc:	90 e0       	ldi	r25, 0x00	; 0
     dfe:	0e 94 37 02 	call	0x46e	; 0x46e <selectFont>

	disp.dig[0] = '-';
     e02:	e9 e7       	ldi	r30, 0x79	; 121
     e04:	f0 e0       	ldi	r31, 0x00	; 0
     e06:	8d e2       	ldi	r24, 0x2D	; 45
     e08:	80 83       	st	Z, r24
	disp.dig[1] = '-';
     e0a:	81 83       	std	Z+1, r24	; 0x01
	disp.dig[2] = '-';
     e0c:	82 83       	std	Z+2, r24	; 0x02
	disp.dig[3] = '-';
     e0e:	83 83       	std	Z+3, r24	; 0x03
     e10:	2f ef       	ldi	r18, 0xFF	; 255
     e12:	89 e6       	ldi	r24, 0x69	; 105
     e14:	98 e1       	ldi	r25, 0x18	; 24
     e16:	21 50       	subi	r18, 0x01	; 1
     e18:	80 40       	sbci	r24, 0x00	; 0
     e1a:	90 40       	sbci	r25, 0x00	; 0
     e1c:	e1 f7       	brne	.-8      	; 0xe16 <testHardware+0x2c>
     e1e:	00 c0       	rjmp	.+0      	; 0xe20 <testHardware+0x36>
     e20:	00 00       	nop
	
	_delay_ms(500);
	
	while ( ! ( SWITCH_PIN & 1<<SWITCH_ENTER_bp ) ) {}
     e22:	b3 9b       	sbis	0x16, 3	; 22
     e24:	fe cf       	rjmp	.-4      	; 0xe22 <testHardware+0x38>
	
	while ( SWITCH_PIN & 1<<SWITCH_ENTER_bp )
     e26:	b3 9b       	sbis	0x16, 3	; 22
     e28:	8b c0       	rjmp	.+278    	; 0xf40 <testHardware+0x156>
	{
		selectFont( (char**) segments );
		
		for (uint8_t x = '0' ; x < '8' ; x++)
		{
			disp.dig[0] = x;
     e2a:	09 e7       	ldi	r16, 0x79	; 121
     e2c:	10 e0       	ldi	r17, 0x00	; 0
			disp.dig[1] = x;
			disp.dig[2] = x;
			disp.dig[3] = x;
			setRelais( tmp = 1<<( x - '0' ) );
     e2e:	d1 e0       	ldi	r29, 0x01	; 1
		setRelais( 0 );
		VIB_ON;
		_delay_ms(40);
		VIB_OFF;
		
		sys.i2cBusy = 1;
     e30:	0f 2e       	mov	r0, r31
     e32:	fe eb       	ldi	r31, 0xBE	; 190
     e34:	cf 2e       	mov	r12, r31
     e36:	f2 e0       	ldi	r31, 0x02	; 2
     e38:	df 2e       	mov	r13, r31
     e3a:	f0 2d       	mov	r31, r0
	
	while ( ! ( SWITCH_PIN & 1<<SWITCH_ENTER_bp ) ) {}
	
	while ( SWITCH_PIN & 1<<SWITCH_ENTER_bp )
	{
		selectFont( (char**) segments );
     e3c:	89 e9       	ldi	r24, 0x99	; 153
     e3e:	90 e0       	ldi	r25, 0x00	; 0
     e40:	0e 94 37 02 	call	0x46e	; 0x46e <selectFont>
     e44:	e1 2c       	mov	r14, r1
     e46:	f1 2c       	mov	r15, r1
		
		for (uint8_t x = '0' ; x < '8' ; x++)
     e48:	c0 e3       	ldi	r28, 0x30	; 48
		{
			disp.dig[0] = x;
     e4a:	f8 01       	movw	r30, r16
     e4c:	c0 83       	st	Z, r28
			disp.dig[1] = x;
     e4e:	c1 83       	std	Z+1, r28	; 0x01
			disp.dig[2] = x;
     e50:	c2 83       	std	Z+2, r28	; 0x02
			disp.dig[3] = x;
     e52:	c3 83       	std	Z+3, r28	; 0x03
			setRelais( tmp = 1<<( x - '0' ) );
     e54:	8d 2f       	mov	r24, r29
     e56:	0e 2c       	mov	r0, r14
     e58:	01 c0       	rjmp	.+2      	; 0xe5c <testHardware+0x72>
     e5a:	88 0f       	add	r24, r24
     e5c:	0a 94       	dec	r0
     e5e:	ea f7       	brpl	.-6      	; 0xe5a <testHardware+0x70>
     e60:	0e 94 67 06 	call	0xcce	; 0xcce <setRelais>
     e64:	ff ef       	ldi	r31, 0xFF	; 255
     e66:	29 e6       	ldi	r18, 0x69	; 105
     e68:	88 e1       	ldi	r24, 0x18	; 24
     e6a:	f1 50       	subi	r31, 0x01	; 1
     e6c:	20 40       	sbci	r18, 0x00	; 0
     e6e:	80 40       	sbci	r24, 0x00	; 0
     e70:	e1 f7       	brne	.-8      	; 0xe6a <testHardware+0x80>
     e72:	00 c0       	rjmp	.+0      	; 0xe74 <testHardware+0x8a>
     e74:	00 00       	nop
	
	while ( SWITCH_PIN & 1<<SWITCH_ENTER_bp )
	{
		selectFont( (char**) segments );
		
		for (uint8_t x = '0' ; x < '8' ; x++)
     e76:	cf 5f       	subi	r28, 0xFF	; 255
     e78:	9f ef       	ldi	r25, 0xFF	; 255
     e7a:	e9 1a       	sub	r14, r25
     e7c:	f9 0a       	sbc	r15, r25
     e7e:	c8 33       	cpi	r28, 0x38	; 56
     e80:	21 f7       	brne	.-56     	; 0xe4a <testHardware+0x60>
			disp.dig[3] = x;
			setRelais( tmp = 1<<( x - '0' ) );
			_delay_ms(500);
		}tmp = 0;
		
		clearDigits();
     e82:	0e 94 bb 02 	call	0x576	; 0x576 <clearDigits>
		
		setRelais( 0 );
     e86:	80 e0       	ldi	r24, 0x00	; 0
     e88:	0e 94 67 06 	call	0xcce	; 0xcce <setRelais>
		VIB_ON;
     e8c:	c6 9a       	sbi	0x18, 6	; 24
     e8e:	ef ef       	ldi	r30, 0xFF	; 255
     e90:	f3 ef       	ldi	r31, 0xF3	; 243
     e92:	21 e0       	ldi	r18, 0x01	; 1
     e94:	e1 50       	subi	r30, 0x01	; 1
     e96:	f0 40       	sbci	r31, 0x00	; 0
     e98:	20 40       	sbci	r18, 0x00	; 0
     e9a:	e1 f7       	brne	.-8      	; 0xe94 <testHardware+0xaa>
     e9c:	00 c0       	rjmp	.+0      	; 0xe9e <testHardware+0xb4>
     e9e:	00 00       	nop
		_delay_ms(40);
		VIB_OFF;
     ea0:	c6 98       	cbi	0x18, 6	; 24
		
		sys.i2cBusy = 1;
     ea2:	f6 01       	movw	r30, r12
     ea4:	80 81       	ld	r24, Z
     ea6:	81 60       	ori	r24, 0x01	; 1
     ea8:	80 83       	st	Z, r24
     eaa:	c5 e0       	ldi	r28, 0x05	; 5
		for ( uint8_t x = 0 ; x < 5 ; x++ )
		{
			refEnable(1);
     eac:	81 e0       	ldi	r24, 0x01	; 1
     eae:	0e 94 ae 02 	call	0x55c	; 0x55c <refEnable>
     eb2:	ff ef       	ldi	r31, 0xFF	; 255
     eb4:	20 e7       	ldi	r18, 0x70	; 112
     eb6:	82 e0       	ldi	r24, 0x02	; 2
     eb8:	f1 50       	subi	r31, 0x01	; 1
     eba:	20 40       	sbci	r18, 0x00	; 0
     ebc:	80 40       	sbci	r24, 0x00	; 0
     ebe:	e1 f7       	brne	.-8      	; 0xeb8 <testHardware+0xce>
     ec0:	00 c0       	rjmp	.+0      	; 0xec2 <testHardware+0xd8>
     ec2:	00 00       	nop
			_delay_ms(50);
			refEnable(0);
     ec4:	80 e0       	ldi	r24, 0x00	; 0
     ec6:	0e 94 ae 02 	call	0x55c	; 0x55c <refEnable>
     eca:	9f ef       	ldi	r25, 0xFF	; 255
     ecc:	e0 e7       	ldi	r30, 0x70	; 112
     ece:	f2 e0       	ldi	r31, 0x02	; 2
     ed0:	91 50       	subi	r25, 0x01	; 1
     ed2:	e0 40       	sbci	r30, 0x00	; 0
     ed4:	f0 40       	sbci	r31, 0x00	; 0
     ed6:	e1 f7       	brne	.-8      	; 0xed0 <testHardware+0xe6>
     ed8:	00 c0       	rjmp	.+0      	; 0xeda <testHardware+0xf0>
     eda:	00 00       	nop
     edc:	c1 50       	subi	r28, 0x01	; 1
		VIB_ON;
		_delay_ms(40);
		VIB_OFF;
		
		sys.i2cBusy = 1;
		for ( uint8_t x = 0 ; x < 5 ; x++ )
     ede:	31 f7       	brne	.-52     	; 0xeac <testHardware+0xc2>
			refEnable(1);
			_delay_ms(50);
			refEnable(0);
			_delay_ms(50);
		}
		sys.i2cBusy = 0;
     ee0:	f6 01       	movw	r30, r12
     ee2:	80 81       	ld	r24, Z
     ee4:	8e 7f       	andi	r24, 0xFE	; 254
     ee6:	80 83       	st	Z, r24
		
		sys.scrollIsRdy = 0;
     ee8:	14 82       	std	Z+4, r1	; 0x04
		scrollMessage( "8888" , 2500 , 1 );
     eea:	41 e0       	ldi	r20, 0x01	; 1
     eec:	64 ec       	ldi	r22, 0xC4	; 196
     eee:	79 e0       	ldi	r23, 0x09	; 9
     ef0:	86 e2       	ldi	r24, 0x26	; 38
     ef2:	91 e0       	ldi	r25, 0x01	; 1
     ef4:	0e 94 8b 06 	call	0xd16	; 0xd16 <scrollMessage>
		sys.scrollIsRdy = 0;
     ef8:	f6 01       	movw	r30, r12
     efa:	14 82       	std	Z+4, r1	; 0x04
		
		uart_puts( "**HeschDevBoard_7Segment**\r\n");
     efc:	8b e2       	ldi	r24, 0x2B	; 43
     efe:	91 e0       	ldi	r25, 0x01	; 1
     f00:	0e 94 ff 04 	call	0x9fe	; 0x9fe <uart_puts>
		uart_puts( "Support by J.H - Elec.\r\n");
     f04:	88 e4       	ldi	r24, 0x48	; 72
     f06:	91 e0       	ldi	r25, 0x01	; 1
     f08:	0e 94 ff 04 	call	0x9fe	; 0x9fe <uart_puts>
		uart_puts( "www.jh-elec.de\r\n" );
     f0c:	81 e6       	ldi	r24, 0x61	; 97
     f0e:	91 e0       	ldi	r25, 0x01	; 1
     f10:	0e 94 ff 04 	call	0x9fe	; 0x9fe <uart_puts>
		uart_puts( "Ver.: " );
     f14:	82 e7       	ldi	r24, 0x72	; 114
     f16:	91 e0       	ldi	r25, 0x01	; 1
     f18:	0e 94 ff 04 	call	0x9fe	; 0x9fe <uart_puts>
		uart_puts( buildVer() );
     f1c:	0e 94 d4 00 	call	0x1a8	; 0x1a8 <buildVer>
     f20:	0e 94 ff 04 	call	0x9fe	; 0x9fe <uart_puts>
		uart_puts( "\r\n" );
     f24:	83 e2       	ldi	r24, 0x23	; 35
     f26:	91 e0       	ldi	r25, 0x01	; 1
     f28:	0e 94 ff 04 	call	0x9fe	; 0x9fe <uart_puts>
		uart_puts( "Testmode..\r\n" );
     f2c:	89 e7       	ldi	r24, 0x79	; 121
     f2e:	91 e0       	ldi	r25, 0x01	; 1
     f30:	0e 94 ff 04 	call	0x9fe	; 0x9fe <uart_puts>
		uart_puts( "\r\n" );
     f34:	83 e2       	ldi	r24, 0x23	; 35
     f36:	91 e0       	ldi	r25, 0x01	; 1
     f38:	0e 94 ff 04 	call	0x9fe	; 0x9fe <uart_puts>
	
	_delay_ms(500);
	
	while ( ! ( SWITCH_PIN & 1<<SWITCH_ENTER_bp ) ) {}
	
	while ( SWITCH_PIN & 1<<SWITCH_ENTER_bp )
     f3c:	b3 99       	sbic	0x16, 3	; 22
     f3e:	7e cf       	rjmp	.-260    	; 0xe3c <testHardware+0x52>
		uart_puts( buildVer() );
		uart_puts( "\r\n" );
		uart_puts( "Testmode..\r\n" );
		uart_puts( "\r\n" );
	}
}
     f40:	df 91       	pop	r29
     f42:	cf 91       	pop	r28
     f44:	1f 91       	pop	r17
     f46:	0f 91       	pop	r16
     f48:	ff 90       	pop	r15
     f4a:	ef 90       	pop	r14
     f4c:	df 90       	pop	r13
     f4e:	cf 90       	pop	r12
     f50:	08 95       	ret

00000f52 <readRingBuff>:

char *readRingBuff( char *stream )
{
     f52:	cf 93       	push	r28
     f54:	df 93       	push	r29
     f56:	ec 01       	movw	r28, r24
	static uint8_t index = 0;
	
	/*
	*	Neustes Byte aus dem Ringpuffer abholen
	*/
	uint16_t c = uart_getc();
     f58:	0e 94 d5 04 	call	0x9aa	; 0x9aa <uart_getc>
	
	/*
	*	Wenn keine neuen Daten vorhanden, direkt wieder zurück!
	*/
	if ( c & UART_NO_DATA)
     f5c:	90 fd       	sbrc	r25, 0
     f5e:	2f c0       	rjmp	.+94     	; 0xfbe <readRingBuff+0x6c>
	}
	
	/*
	*	Ist ein Fehler aufgetreten?
	*/
	if ( c > UART_NO_DATA)
     f60:	81 30       	cpi	r24, 0x01	; 1
     f62:	21 e0       	ldi	r18, 0x01	; 1
     f64:	92 07       	cpc	r25, r18
     f66:	28 f0       	brcs	.+10     	; 0xf72 <readRingBuff+0x20>
	{
		index = 0; 
     f68:	10 92 7e 02 	sts	0x027E, r1	; 0x80027e <index.2422>
		return NULL;
     f6c:	80 e0       	ldi	r24, 0x00	; 0
     f6e:	90 e0       	ldi	r25, 0x00	; 0
     f70:	28 c0       	rjmp	.+80     	; 0xfc2 <readRingBuff+0x70>
	}
	
	/*
	*	Status und Error Bits ausmaskieren
	*/
	c &= 0x00FF;
     f72:	9c 01       	movw	r18, r24
     f74:	33 27       	eor	r19, r19
	
	/*
	*	Übertragungsende?
	*/
	if (c == '\n' || c == '\r')
     f76:	2a 30       	cpi	r18, 0x0A	; 10
     f78:	31 05       	cpc	r19, r1
     f7a:	19 f0       	breq	.+6      	; 0xf82 <readRingBuff+0x30>
     f7c:	2d 30       	cpi	r18, 0x0D	; 13
     f7e:	31 05       	cpc	r19, r1
     f80:	59 f4       	brne	.+22     	; 0xf98 <readRingBuff+0x46>
	{
		*( stream + index ) = '\0';
     f82:	80 91 7e 02 	lds	r24, 0x027E	; 0x80027e <index.2422>
     f86:	fe 01       	movw	r30, r28
     f88:	e8 0f       	add	r30, r24
     f8a:	f1 1d       	adc	r31, r1
     f8c:	10 82       	st	Z, r1
		index = 0; 
     f8e:	10 92 7e 02 	sts	0x027E, r1	; 0x80027e <index.2422>
		return stream;
     f92:	8c 2f       	mov	r24, r28
     f94:	9d 2f       	mov	r25, r29
     f96:	15 c0       	rjmp	.+42     	; 0xfc2 <readRingBuff+0x70>
	}
	
	/*
	*	Daten in unseren neuen Puffer zwischen speichern
	*/
	if (index >= UART_RX_BUFFER_SIZE)
     f98:	20 91 7e 02 	lds	r18, 0x027E	; 0x80027e <index.2422>
     f9c:	20 34       	cpi	r18, 0x40	; 64
     f9e:	28 f0       	brcs	.+10     	; 0xfaa <readRingBuff+0x58>
	{
		index = 0;
     fa0:	10 92 7e 02 	sts	0x027E, r1	; 0x80027e <index.2422>
	else
	{
		*( stream + index++ ) = (uint8_t)c;	
	}
	
	return NULL;
     fa4:	80 e0       	ldi	r24, 0x00	; 0
     fa6:	90 e0       	ldi	r25, 0x00	; 0
     fa8:	0c c0       	rjmp	.+24     	; 0xfc2 <readRingBuff+0x70>
	{
		index = 0;
	}
	else
	{
		*( stream + index++ ) = (uint8_t)c;	
     faa:	91 e0       	ldi	r25, 0x01	; 1
     fac:	92 0f       	add	r25, r18
     fae:	90 93 7e 02 	sts	0x027E, r25	; 0x80027e <index.2422>
     fb2:	c2 0f       	add	r28, r18
     fb4:	d1 1d       	adc	r29, r1
     fb6:	88 83       	st	Y, r24
	}
	
	return NULL;
     fb8:	80 e0       	ldi	r24, 0x00	; 0
     fba:	90 e0       	ldi	r25, 0x00	; 0
     fbc:	02 c0       	rjmp	.+4      	; 0xfc2 <readRingBuff+0x70>
	/*
	*	Wenn keine neuen Daten vorhanden, direkt wieder zurück!
	*/
	if ( c & UART_NO_DATA)
	{
		return NULL;
     fbe:	80 e0       	ldi	r24, 0x00	; 0
     fc0:	90 e0       	ldi	r25, 0x00	; 0
	{
		*( stream + index++ ) = (uint8_t)c;	
	}
	
	return NULL;
}
     fc2:	df 91       	pop	r29
     fc4:	cf 91       	pop	r28
     fc6:	08 95       	ret

00000fc8 <main>:

char out[60] = "";

int main(void)
{
	hardware_init();
     fc8:	0e 94 03 03 	call	0x606	; 0x606 <hardware_init>
	uart_init( UART_BAUD_SELECT( 9600 , F_CPU ) );
     fcc:	87 e6       	ldi	r24, 0x67	; 103
     fce:	90 e0       	ldi	r25, 0x00	; 0
     fd0:	0e 94 c1 04 	call	0x982	; 0x982 <uart_init>
	
	eepLoad( &eep );
     fd4:	80 e0       	ldi	r24, 0x00	; 0
     fd6:	90 e0       	ldi	r25, 0x00	; 0
     fd8:	0e 94 77 06 	call	0xcee	; 0xcee <eepLoad>
	i2c_init();
     fdc:	0e 94 75 00 	call	0xea	; 0xea <i2c_init>
	mcp23017_init();
     fe0:	0e 94 3a 03 	call	0x674	; 0x674 <mcp23017_init>
	sts3x_init();
     fe4:	0e 94 5e 04 	call	0x8bc	; 0x8bc <sts3x_init>
	timerInit();
     fe8:	0e 94 15 05 	call	0xa2a	; 0xa2a <timerInit>

	sei();
     fec:	78 94       	sei

	uart_puts( "**HeschDevBoard_7Segment**\r\n");
     fee:	8b e2       	ldi	r24, 0x2B	; 43
     ff0:	91 e0       	ldi	r25, 0x01	; 1
     ff2:	0e 94 ff 04 	call	0x9fe	; 0x9fe <uart_puts>
	uart_puts( "Support by J.H - Elec.\r\n");
     ff6:	88 e4       	ldi	r24, 0x48	; 72
     ff8:	91 e0       	ldi	r25, 0x01	; 1
     ffa:	0e 94 ff 04 	call	0x9fe	; 0x9fe <uart_puts>
	uart_puts( "www.jh-elec.de\r\n" );
     ffe:	81 e6       	ldi	r24, 0x61	; 97
    1000:	91 e0       	ldi	r25, 0x01	; 1
    1002:	0e 94 ff 04 	call	0x9fe	; 0x9fe <uart_puts>
	uart_puts( "Ver.: " );
    1006:	82 e7       	ldi	r24, 0x72	; 114
    1008:	91 e0       	ldi	r25, 0x01	; 1
    100a:	0e 94 ff 04 	call	0x9fe	; 0x9fe <uart_puts>
	uart_puts( buildVer() );
    100e:	0e 94 d4 00 	call	0x1a8	; 0x1a8 <buildVer>
    1012:	0e 94 ff 04 	call	0x9fe	; 0x9fe <uart_puts>

	checkForSetTime();
    1016:	0e 94 27 06 	call	0xc4e	; 0xc4e <checkForSetTime>
	
	if ( ! (SWITCH_PIN & 1<<SWITCH_ENTER_bp) )
    101a:	b3 9b       	sbis	0x16, 3	; 22
	{
		testHardware();
    101c:	0e 94 f5 06 	call	0xdea	; 0xdea <testHardware>
	}		
	
	strcpy( out , "Ver:");
    1020:	85 e0       	ldi	r24, 0x05	; 5
    1022:	e6 e8       	ldi	r30, 0x86	; 134
    1024:	f1 e0       	ldi	r31, 0x01	; 1
    1026:	af e7       	ldi	r26, 0x7F	; 127
    1028:	b2 e0       	ldi	r27, 0x02	; 2
    102a:	01 90       	ld	r0, Z+
    102c:	0d 92       	st	X+, r0
    102e:	8a 95       	dec	r24
    1030:	e1 f7       	brne	.-8      	; 0x102a <main+0x62>
	strcat( out , buildVer() );
    1032:	0e 94 d4 00 	call	0x1a8	; 0x1a8 <buildVer>
    1036:	bc 01       	movw	r22, r24
    1038:	8f e7       	ldi	r24, 0x7F	; 127
    103a:	92 e0       	ldi	r25, 0x02	; 2
    103c:	0e 94 1d 09 	call	0x123a	; 0x123a <strcat>
	scrollMessage( out , 3000 , 1 );
    1040:	41 e0       	ldi	r20, 0x01	; 1
    1042:	68 eb       	ldi	r22, 0xB8	; 184
    1044:	7b e0       	ldi	r23, 0x0B	; 11
    1046:	8f e7       	ldi	r24, 0x7F	; 127
    1048:	92 e0       	ldi	r25, 0x02	; 2
    104a:	0e 94 8b 06 	call	0xd16	; 0xd16 <scrollMessage>
	
	/*
	*	Wird gesetzt damit direkt nach dem einschalten
	*	das erste mal die Temperatur + Uhrzeit gelesen wird.
	*/
	sys.scrollIsRdy = 1;
    104e:	81 e0       	ldi	r24, 0x01	; 1
    1050:	80 93 c2 02 	sts	0x02C2, r24	; 0x8002c2 <sys+0x4>

	while (1) 
    {	
		char		*stream = readRingBuff( out );
    1054:	8f e7       	ldi	r24, 0x7F	; 127
    1056:	92 e0       	ldi	r25, 0x02	; 2
    1058:	0e 94 a9 07 	call	0xf52	; 0xf52 <readRingBuff>
    105c:	ec 01       	movw	r28, r24
		const char	*cmdPtr = NULL;
		if ( stream != NULL )
    105e:	00 97       	sbiw	r24, 0x00	; 0
    1060:	c9 f3       	breq	.-14     	; 0x1054 <main+0x8c>
		{
			cmdPtr = cmdGetName( &cmd , stream );
    1062:	bc 01       	movw	r22, r24
    1064:	81 e8       	ldi	r24, 0x81	; 129
    1066:	90 e0       	ldi	r25, 0x00	; 0
    1068:	0e 94 55 01 	call	0x2aa	; 0x2aa <cmdGetName>
			if ( cmdPtr != NULL )
    106c:	00 97       	sbiw	r24, 0x00	; 0
    106e:	89 f1       	breq	.+98     	; 0x10d2 <main+0x10a>
			{
				uart_puts( cmdPtr );
    1070:	0e 94 ff 04 	call	0x9fe	; 0x9fe <uart_puts>
				uart_puts( "\r\n" );				
    1074:	83 e2       	ldi	r24, 0x23	; 35
    1076:	91 e0       	ldi	r25, 0x01	; 1
    1078:	0e 94 ff 04 	call	0x9fe	; 0x9fe <uart_puts>
				cmdGetFunc( &cmd , stream );
    107c:	be 01       	movw	r22, r28
    107e:	81 e8       	ldi	r24, 0x81	; 129
    1080:	90 e0       	ldi	r25, 0x00	; 0
    1082:	0e 94 6b 01 	call	0x2d6	; 0x2d6 <cmdGetFunc>
				uart_puts( "Parameter.: " );
    1086:	82 e9       	ldi	r24, 0x92	; 146
    1088:	91 e0       	ldi	r25, 0x01	; 1
    108a:	0e 94 ff 04 	call	0x9fe	; 0x9fe <uart_puts>
				uart_puts( cmdGetPara( &cmd , stream , 0 ) );
    108e:	40 e0       	ldi	r20, 0x00	; 0
    1090:	be 01       	movw	r22, r28
    1092:	81 e8       	ldi	r24, 0x81	; 129
    1094:	90 e0       	ldi	r25, 0x00	; 0
    1096:	0e 94 84 01 	call	0x308	; 0x308 <cmdGetPara>
    109a:	0e 94 ff 04 	call	0x9fe	; 0x9fe <uart_puts>
				uart_puts( "\r\n" );
    109e:	83 e2       	ldi	r24, 0x23	; 35
    10a0:	91 e0       	ldi	r25, 0x01	; 1
    10a2:	0e 94 ff 04 	call	0x9fe	; 0x9fe <uart_puts>
				uart_puts( "Anzahl Parameter.: " );
    10a6:	8b e8       	ldi	r24, 0x8B	; 139
    10a8:	91 e0       	ldi	r25, 0x01	; 1
    10aa:	0e 94 ff 04 	call	0x9fe	; 0x9fe <uart_puts>
				uart_puts( itoa( cmd.raw->paraNumb , NULL , 10 ) );
    10ae:	e0 91 85 00 	lds	r30, 0x0085	; 0x800085 <cmd+0x4>
    10b2:	f0 91 86 00 	lds	r31, 0x0086	; 0x800086 <cmd+0x5>
    } else if (__radix < 2 || __radix > 36) {
	*__s = 0;
	return __s;
    } else {
	extern char *__itoa_ncheck (int, char *, unsigned char);
	return __itoa_ncheck (__val, __s, __radix);
    10b6:	82 81       	ldd	r24, Z+2	; 0x02
    10b8:	4a e0       	ldi	r20, 0x0A	; 10
    10ba:	60 e0       	ldi	r22, 0x00	; 0
    10bc:	70 e0       	ldi	r23, 0x00	; 0
    10be:	90 e0       	ldi	r25, 0x00	; 0
    10c0:	0e 94 7b 09 	call	0x12f6	; 0x12f6 <__itoa_ncheck>
    10c4:	0e 94 ff 04 	call	0x9fe	; 0x9fe <uart_puts>
				uart_puts( "\r\n" );
    10c8:	83 e2       	ldi	r24, 0x23	; 35
    10ca:	91 e0       	ldi	r25, 0x01	; 1
    10cc:	0e 94 ff 04 	call	0x9fe	; 0x9fe <uart_puts>
    10d0:	c1 cf       	rjmp	.-126    	; 0x1054 <main+0x8c>
			}
			else
			{
				uart_puts( "Error\r\n" );
    10d2:	8f e9       	ldi	r24, 0x9F	; 159
    10d4:	91 e0       	ldi	r25, 0x01	; 1
    10d6:	0e 94 ff 04 	call	0x9fe	; 0x9fe <uart_puts>
    10da:	bc cf       	rjmp	.-136    	; 0x1054 <main+0x8c>

000010dc <__vector_7>:
    }
}

/* live the CPU?*/
ISR(TIMER1_COMPA_vect)
{
    10dc:	1f 92       	push	r1
    10de:	0f 92       	push	r0
    10e0:	0f b6       	in	r0, 0x3f	; 63
    10e2:	0f 92       	push	r0
    10e4:	11 24       	eor	r1, r1
    10e6:	2f 93       	push	r18
    10e8:	3f 93       	push	r19
    10ea:	4f 93       	push	r20
    10ec:	5f 93       	push	r21
    10ee:	6f 93       	push	r22
    10f0:	7f 93       	push	r23
    10f2:	8f 93       	push	r24
    10f4:	9f 93       	push	r25
    10f6:	af 93       	push	r26
    10f8:	bf 93       	push	r27
    10fa:	ef 93       	push	r30
    10fc:	ff 93       	push	r31
	static uint32_t stateLED = 0;
	sys.scroll++;
    10fe:	ee eb       	ldi	r30, 0xBE	; 190
    1100:	f2 e0       	ldi	r31, 0x02	; 2
    1102:	82 81       	ldd	r24, Z+2	; 0x02
    1104:	93 81       	ldd	r25, Z+3	; 0x03
    1106:	01 96       	adiw	r24, 0x01	; 1
    1108:	93 83       	std	Z+3, r25	; 0x03
    110a:	82 83       	std	Z+2, r24	; 0x02
	
	/*
	*	Status Anzeige
	*/
	stateLED = checkMaxValue( ++stateLED , 10e3 );
    110c:	80 91 7a 02 	lds	r24, 0x027A	; 0x80027a <stateLED.2436>
    1110:	90 91 7b 02 	lds	r25, 0x027B	; 0x80027b <stateLED.2436+0x1>
    1114:	a0 91 7c 02 	lds	r26, 0x027C	; 0x80027c <stateLED.2436+0x2>
    1118:	b0 91 7d 02 	lds	r27, 0x027D	; 0x80027d <stateLED.2436+0x3>
    111c:	01 96       	adiw	r24, 0x01	; 1
    111e:	a1 1d       	adc	r26, r1
    1120:	b1 1d       	adc	r27, r1
	OCR1A   = ( (uint16_t)( F_CPU / 1 / 8000 ) );	
}

uint16_t checkMaxValue( uint16_t val , uint16_t max )
{
	if( val > max )
    1122:	81 31       	cpi	r24, 0x11	; 17
    1124:	27 e2       	ldi	r18, 0x27	; 39
    1126:	92 07       	cpc	r25, r18
    1128:	08 f0       	brcs	.+2      	; 0x112c <__vector_7+0x50>
    112a:	62 c0       	rjmp	.+196    	; 0x11f0 <__vector_7+0x114>
    112c:	aa 27       	eor	r26, r26
    112e:	bb 27       	eor	r27, r27
	sys.scroll++;
	
	/*
	*	Status Anzeige
	*/
	stateLED = checkMaxValue( ++stateLED , 10e3 );
    1130:	80 93 7a 02 	sts	0x027A, r24	; 0x80027a <stateLED.2436>
    1134:	90 93 7b 02 	sts	0x027B, r25	; 0x80027b <stateLED.2436+0x1>
    1138:	a0 93 7c 02 	sts	0x027C, r26	; 0x80027c <stateLED.2436+0x2>
    113c:	b0 93 7d 02 	sts	0x027D, r27	; 0x80027d <stateLED.2436+0x3>
	
	if ( stateLED <= 200 )
    1140:	89 3c       	cpi	r24, 0xC9	; 201
    1142:	91 05       	cpc	r25, r1
    1144:	a1 05       	cpc	r26, r1
    1146:	b1 05       	cpc	r27, r1
    1148:	10 f4       	brcc	.+4      	; 0x114e <__vector_7+0x72>
	{
		BC(LED_HEARTBEAT_PORT,LED_HEARTBEAT_bp);
    114a:	c7 98       	cbi	0x18, 7	; 24
    114c:	24 c0       	rjmp	.+72     	; 0x1196 <__vector_7+0xba>
	}
	else if ( ( stateLED >= 400 ) && ( stateLED <= 600 ) )
    114e:	ac 01       	movw	r20, r24
    1150:	bd 01       	movw	r22, r26
    1152:	40 59       	subi	r20, 0x90	; 144
    1154:	51 40       	sbci	r21, 0x01	; 1
    1156:	61 09       	sbc	r22, r1
    1158:	71 09       	sbc	r23, r1
    115a:	49 3c       	cpi	r20, 0xC9	; 201
    115c:	51 05       	cpc	r21, r1
    115e:	61 05       	cpc	r22, r1
    1160:	71 05       	cpc	r23, r1
    1162:	10 f4       	brcc	.+4      	; 0x1168 <__vector_7+0x8c>
	{
		BS(LED_HEARTBEAT_PORT,LED_HEARTBEAT_bp);
    1164:	c7 9a       	sbi	0x18, 7	; 24
    1166:	17 c0       	rjmp	.+46     	; 0x1196 <__vector_7+0xba>
	}
	else if ( ( stateLED >= 1000 ) && ( stateLED <= 1400 ) )
    1168:	ac 01       	movw	r20, r24
    116a:	bd 01       	movw	r22, r26
    116c:	48 5e       	subi	r20, 0xE8	; 232
    116e:	53 40       	sbci	r21, 0x03	; 3
    1170:	61 09       	sbc	r22, r1
    1172:	71 09       	sbc	r23, r1
    1174:	41 39       	cpi	r20, 0x91	; 145
    1176:	51 40       	sbci	r21, 0x01	; 1
    1178:	61 05       	cpc	r22, r1
    117a:	71 05       	cpc	r23, r1
    117c:	10 f4       	brcc	.+4      	; 0x1182 <__vector_7+0xa6>
	{
		BC(LED_HEARTBEAT_PORT,LED_HEARTBEAT_bp);
    117e:	c7 98       	cbi	0x18, 7	; 24
    1180:	0a c0       	rjmp	.+20     	; 0x1196 <__vector_7+0xba>
	}
	else if ( ( stateLED >= 1600 ) && ( stateLED <= 1800 ) )
    1182:	80 54       	subi	r24, 0x40	; 64
    1184:	96 40       	sbci	r25, 0x06	; 6
    1186:	a1 09       	sbc	r26, r1
    1188:	b1 09       	sbc	r27, r1
    118a:	89 3c       	cpi	r24, 0xC9	; 201
    118c:	91 05       	cpc	r25, r1
    118e:	a1 05       	cpc	r26, r1
    1190:	b1 05       	cpc	r27, r1
    1192:	08 f4       	brcc	.+2      	; 0x1196 <__vector_7+0xba>
	{
		BS(LED_HEARTBEAT_PORT,LED_HEARTBEAT_bp);
    1194:	c7 9a       	sbi	0x18, 7	; 24
	}
	
	/*
	*	Drehencoder auswertung.
	*/
	encoder.Last = ( ( encoder.Last << 2 ) & 0x0F );
    1196:	e7 e8       	ldi	r30, 0x87	; 135
    1198:	f0 e0       	ldi	r31, 0x00	; 0
    119a:	81 89       	ldd	r24, Z+17	; 0x11
    119c:	24 e0       	ldi	r18, 0x04	; 4
    119e:	82 02       	muls	r24, r18
    11a0:	c0 01       	movw	r24, r0
    11a2:	11 24       	eor	r1, r1
    11a4:	8f 70       	andi	r24, 0x0F	; 15
    11a6:	81 8b       	std	Z+17, r24	; 0x11
	if (ENC_PIN & 1<<ENC_B)
    11a8:	c9 9b       	sbis	0x19, 1	; 25
    11aa:	03 c0       	rjmp	.+6      	; 0x11b2 <__vector_7+0xd6>
	{
		encoder.Last |= 2;
    11ac:	81 89       	ldd	r24, Z+17	; 0x11
    11ae:	82 60       	ori	r24, 0x02	; 2
    11b0:	81 8b       	std	Z+17, r24	; 0x11
	}
	if (ENC_PIN & 1<<ENC_A)
    11b2:	ca 9b       	sbis	0x19, 2	; 25
    11b4:	05 c0       	rjmp	.+10     	; 0x11c0 <__vector_7+0xe4>
	{
		encoder.Last |= 1;
    11b6:	e7 e8       	ldi	r30, 0x87	; 135
    11b8:	f0 e0       	ldi	r31, 0x00	; 0
    11ba:	81 89       	ldd	r24, Z+17	; 0x11
    11bc:	81 60       	ori	r24, 0x01	; 1
    11be:	81 8b       	std	Z+17, r24	; 0x11
	} 	
	encoder.result += encoder.Table[encoder.Last];	
    11c0:	a7 e8       	ldi	r26, 0x87	; 135
    11c2:	b0 e0       	ldi	r27, 0x00	; 0
    11c4:	51 96       	adiw	r26, 0x11	; 17
    11c6:	ec 91       	ld	r30, X
    11c8:	51 97       	sbiw	r26, 0x11	; 17
    11ca:	0e 2e       	mov	r0, r30
    11cc:	00 0c       	add	r0, r0
    11ce:	ff 0b       	sbc	r31, r31
    11d0:	e9 57       	subi	r30, 0x79	; 121
    11d2:	ff 4f       	sbci	r31, 0xFF	; 255
    11d4:	80 81       	ld	r24, Z
    11d6:	50 96       	adiw	r26, 0x10	; 16
    11d8:	9c 91       	ld	r25, X
    11da:	50 97       	sbiw	r26, 0x10	; 16
    11dc:	89 0f       	add	r24, r25
    11de:	50 96       	adiw	r26, 0x10	; 16
    11e0:	8c 93       	st	X, r24
	
	if ( !sys.i2cBusy )
    11e2:	80 91 be 02 	lds	r24, 0x02BE	; 0x8002be <sys>
    11e6:	80 fd       	sbrc	r24, 0
    11e8:	0c c0       	rjmp	.+24     	; 0x1202 <__vector_7+0x126>
	{
		muxDigits();	
    11ea:	0e 94 c3 02 	call	0x586	; 0x586 <muxDigits>
	}
    11ee:	09 c0       	rjmp	.+18     	; 0x1202 <__vector_7+0x126>
	sys.scroll++;
	
	/*
	*	Status Anzeige
	*/
	stateLED = checkMaxValue( ++stateLED , 10e3 );
    11f0:	10 92 7a 02 	sts	0x027A, r1	; 0x80027a <stateLED.2436>
    11f4:	10 92 7b 02 	sts	0x027B, r1	; 0x80027b <stateLED.2436+0x1>
    11f8:	10 92 7c 02 	sts	0x027C, r1	; 0x80027c <stateLED.2436+0x2>
    11fc:	10 92 7d 02 	sts	0x027D, r1	; 0x80027d <stateLED.2436+0x3>
    1200:	a4 cf       	rjmp	.-184    	; 0x114a <__vector_7+0x6e>
	
	if ( !sys.i2cBusy )
	{
		muxDigits();	
	}
    1202:	ff 91       	pop	r31
    1204:	ef 91       	pop	r30
    1206:	bf 91       	pop	r27
    1208:	af 91       	pop	r26
    120a:	9f 91       	pop	r25
    120c:	8f 91       	pop	r24
    120e:	7f 91       	pop	r23
    1210:	6f 91       	pop	r22
    1212:	5f 91       	pop	r21
    1214:	4f 91       	pop	r20
    1216:	3f 91       	pop	r19
    1218:	2f 91       	pop	r18
    121a:	0f 90       	pop	r0
    121c:	0f be       	out	0x3f, r0	; 63
    121e:	0f 90       	pop	r0
    1220:	1f 90       	pop	r1
    1222:	18 95       	reti

00001224 <__tablejump2__>:
    1224:	ee 0f       	add	r30, r30
    1226:	ff 1f       	adc	r31, r31
    1228:	05 90       	lpm	r0, Z+
    122a:	f4 91       	lpm	r31, Z
    122c:	e0 2d       	mov	r30, r0
    122e:	09 94       	ijmp

00001230 <strtok>:
    1230:	42 ef       	ldi	r20, 0xF2	; 242
    1232:	51 e0       	ldi	r21, 0x01	; 1
    1234:	0e 94 54 09 	call	0x12a8	; 0x12a8 <strtok_r>
    1238:	08 95       	ret

0000123a <strcat>:
    123a:	fb 01       	movw	r30, r22
    123c:	dc 01       	movw	r26, r24
    123e:	0d 90       	ld	r0, X+
    1240:	00 20       	and	r0, r0
    1242:	e9 f7       	brne	.-6      	; 0x123e <strcat+0x4>
    1244:	11 97       	sbiw	r26, 0x01	; 1
    1246:	01 90       	ld	r0, Z+
    1248:	0d 92       	st	X+, r0
    124a:	00 20       	and	r0, r0
    124c:	e1 f7       	brne	.-8      	; 0x1246 <strcat+0xc>
    124e:	08 95       	ret

00001250 <strchr>:
    1250:	fc 01       	movw	r30, r24
    1252:	81 91       	ld	r24, Z+
    1254:	86 17       	cp	r24, r22
    1256:	21 f0       	breq	.+8      	; 0x1260 <strchr+0x10>
    1258:	88 23       	and	r24, r24
    125a:	d9 f7       	brne	.-10     	; 0x1252 <strchr+0x2>
    125c:	99 27       	eor	r25, r25
    125e:	08 95       	ret
    1260:	31 97       	sbiw	r30, 0x01	; 1
    1262:	cf 01       	movw	r24, r30
    1264:	08 95       	ret

00001266 <strcpy>:
    1266:	fb 01       	movw	r30, r22
    1268:	dc 01       	movw	r26, r24
    126a:	01 90       	ld	r0, Z+
    126c:	0d 92       	st	X+, r0
    126e:	00 20       	and	r0, r0
    1270:	e1 f7       	brne	.-8      	; 0x126a <strcpy+0x4>
    1272:	08 95       	ret

00001274 <strstr>:
    1274:	fb 01       	movw	r30, r22
    1276:	51 91       	ld	r21, Z+
    1278:	55 23       	and	r21, r21
    127a:	a9 f0       	breq	.+42     	; 0x12a6 <strstr+0x32>
    127c:	bf 01       	movw	r22, r30
    127e:	dc 01       	movw	r26, r24
    1280:	4d 91       	ld	r20, X+
    1282:	45 17       	cp	r20, r21
    1284:	41 11       	cpse	r20, r1
    1286:	e1 f7       	brne	.-8      	; 0x1280 <strstr+0xc>
    1288:	59 f4       	brne	.+22     	; 0x12a0 <strstr+0x2c>
    128a:	cd 01       	movw	r24, r26
    128c:	01 90       	ld	r0, Z+
    128e:	00 20       	and	r0, r0
    1290:	49 f0       	breq	.+18     	; 0x12a4 <strstr+0x30>
    1292:	4d 91       	ld	r20, X+
    1294:	40 15       	cp	r20, r0
    1296:	41 11       	cpse	r20, r1
    1298:	c9 f3       	breq	.-14     	; 0x128c <strstr+0x18>
    129a:	fb 01       	movw	r30, r22
    129c:	41 11       	cpse	r20, r1
    129e:	ef cf       	rjmp	.-34     	; 0x127e <strstr+0xa>
    12a0:	81 e0       	ldi	r24, 0x01	; 1
    12a2:	90 e0       	ldi	r25, 0x00	; 0
    12a4:	01 97       	sbiw	r24, 0x01	; 1
    12a6:	08 95       	ret

000012a8 <strtok_r>:
    12a8:	fa 01       	movw	r30, r20
    12aa:	a1 91       	ld	r26, Z+
    12ac:	b0 81       	ld	r27, Z
    12ae:	00 97       	sbiw	r24, 0x00	; 0
    12b0:	19 f4       	brne	.+6      	; 0x12b8 <strtok_r+0x10>
    12b2:	10 97       	sbiw	r26, 0x00	; 0
    12b4:	e1 f0       	breq	.+56     	; 0x12ee <strtok_r+0x46>
    12b6:	cd 01       	movw	r24, r26
    12b8:	dc 01       	movw	r26, r24
    12ba:	cd 01       	movw	r24, r26
    12bc:	0d 90       	ld	r0, X+
    12be:	00 20       	and	r0, r0
    12c0:	11 f4       	brne	.+4      	; 0x12c6 <strtok_r+0x1e>
    12c2:	c0 01       	movw	r24, r0
    12c4:	13 c0       	rjmp	.+38     	; 0x12ec <strtok_r+0x44>
    12c6:	fb 01       	movw	r30, r22
    12c8:	21 91       	ld	r18, Z+
    12ca:	22 23       	and	r18, r18
    12cc:	19 f0       	breq	.+6      	; 0x12d4 <strtok_r+0x2c>
    12ce:	20 15       	cp	r18, r0
    12d0:	d9 f7       	brne	.-10     	; 0x12c8 <strtok_r+0x20>
    12d2:	f3 cf       	rjmp	.-26     	; 0x12ba <strtok_r+0x12>
    12d4:	fb 01       	movw	r30, r22
    12d6:	21 91       	ld	r18, Z+
    12d8:	20 15       	cp	r18, r0
    12da:	19 f4       	brne	.+6      	; 0x12e2 <strtok_r+0x3a>
    12dc:	1e 92       	st	-X, r1
    12de:	11 96       	adiw	r26, 0x01	; 1
    12e0:	06 c0       	rjmp	.+12     	; 0x12ee <strtok_r+0x46>
    12e2:	22 23       	and	r18, r18
    12e4:	c1 f7       	brne	.-16     	; 0x12d6 <strtok_r+0x2e>
    12e6:	0d 90       	ld	r0, X+
    12e8:	00 20       	and	r0, r0
    12ea:	a1 f7       	brne	.-24     	; 0x12d4 <strtok_r+0x2c>
    12ec:	d0 01       	movw	r26, r0
    12ee:	fa 01       	movw	r30, r20
    12f0:	a1 93       	st	Z+, r26
    12f2:	b0 83       	st	Z, r27
    12f4:	08 95       	ret

000012f6 <__itoa_ncheck>:
    12f6:	bb 27       	eor	r27, r27
    12f8:	4a 30       	cpi	r20, 0x0A	; 10
    12fa:	31 f4       	brne	.+12     	; 0x1308 <__itoa_ncheck+0x12>
    12fc:	99 23       	and	r25, r25
    12fe:	22 f4       	brpl	.+8      	; 0x1308 <__itoa_ncheck+0x12>
    1300:	bd e2       	ldi	r27, 0x2D	; 45
    1302:	90 95       	com	r25
    1304:	81 95       	neg	r24
    1306:	9f 4f       	sbci	r25, 0xFF	; 255
    1308:	0c 94 87 09 	jmp	0x130e	; 0x130e <__utoa_common>

0000130c <__utoa_ncheck>:
    130c:	bb 27       	eor	r27, r27

0000130e <__utoa_common>:
    130e:	fb 01       	movw	r30, r22
    1310:	55 27       	eor	r21, r21
    1312:	aa 27       	eor	r26, r26
    1314:	88 0f       	add	r24, r24
    1316:	99 1f       	adc	r25, r25
    1318:	aa 1f       	adc	r26, r26
    131a:	a4 17       	cp	r26, r20
    131c:	10 f0       	brcs	.+4      	; 0x1322 <__utoa_common+0x14>
    131e:	a4 1b       	sub	r26, r20
    1320:	83 95       	inc	r24
    1322:	50 51       	subi	r21, 0x10	; 16
    1324:	b9 f7       	brne	.-18     	; 0x1314 <__utoa_common+0x6>
    1326:	a0 5d       	subi	r26, 0xD0	; 208
    1328:	aa 33       	cpi	r26, 0x3A	; 58
    132a:	08 f0       	brcs	.+2      	; 0x132e <__utoa_common+0x20>
    132c:	a9 5d       	subi	r26, 0xD9	; 217
    132e:	a1 93       	st	Z+, r26
    1330:	00 97       	sbiw	r24, 0x00	; 0
    1332:	79 f7       	brne	.-34     	; 0x1312 <__utoa_common+0x4>
    1334:	b1 11       	cpse	r27, r1
    1336:	b1 93       	st	Z+, r27
    1338:	11 92       	st	Z+, r1
    133a:	cb 01       	movw	r24, r22
    133c:	0c 94 a0 09 	jmp	0x1340	; 0x1340 <strrev>

00001340 <strrev>:
    1340:	dc 01       	movw	r26, r24
    1342:	fc 01       	movw	r30, r24
    1344:	67 2f       	mov	r22, r23
    1346:	71 91       	ld	r23, Z+
    1348:	77 23       	and	r23, r23
    134a:	e1 f7       	brne	.-8      	; 0x1344 <strrev+0x4>
    134c:	32 97       	sbiw	r30, 0x02	; 2
    134e:	04 c0       	rjmp	.+8      	; 0x1358 <strrev+0x18>
    1350:	7c 91       	ld	r23, X
    1352:	6d 93       	st	X+, r22
    1354:	70 83       	st	Z, r23
    1356:	62 91       	ld	r22, -Z
    1358:	ae 17       	cp	r26, r30
    135a:	bf 07       	cpc	r27, r31
    135c:	c8 f3       	brcs	.-14     	; 0x1350 <strrev+0x10>
    135e:	08 95       	ret

00001360 <eeprom_read_byte>:
    1360:	e1 99       	sbic	0x1c, 1	; 28
    1362:	fe cf       	rjmp	.-4      	; 0x1360 <eeprom_read_byte>
    1364:	9f bb       	out	0x1f, r25	; 31
    1366:	8e bb       	out	0x1e, r24	; 30
    1368:	e0 9a       	sbi	0x1c, 0	; 28
    136a:	99 27       	eor	r25, r25
    136c:	8d b3       	in	r24, 0x1d	; 29
    136e:	08 95       	ret

00001370 <eeprom_write_byte>:
    1370:	26 2f       	mov	r18, r22

00001372 <eeprom_write_r18>:
    1372:	e1 99       	sbic	0x1c, 1	; 28
    1374:	fe cf       	rjmp	.-4      	; 0x1372 <eeprom_write_r18>
    1376:	9f bb       	out	0x1f, r25	; 31
    1378:	8e bb       	out	0x1e, r24	; 30
    137a:	2d bb       	out	0x1d, r18	; 29
    137c:	0f b6       	in	r0, 0x3f	; 63
    137e:	f8 94       	cli
    1380:	e2 9a       	sbi	0x1c, 2	; 28
    1382:	e1 9a       	sbi	0x1c, 1	; 28
    1384:	0f be       	out	0x3f, r0	; 63
    1386:	01 96       	adiw	r24, 0x01	; 1
    1388:	08 95       	ret

0000138a <_exit>:
    138a:	f8 94       	cli

0000138c <__stop_program>:
    138c:	ff cf       	rjmp	.-2      	; 0x138c <__stop_program>
