
RelaisSwitchBox.elf:     file format elf32-avr

Sections:
Idx Name          Size      VMA       LMA       File off  Algn
  0 .text         00000c0c  00000000  00000000  00000094  2**1
                  CONTENTS, ALLOC, LOAD, READONLY, CODE
  1 .data         000001c0  00800060  00000c0c  00000ca0  2**0
                  CONTENTS, ALLOC, LOAD, DATA
  2 .bss          0000017d  00800220  00800220  00000e60  2**0
                  ALLOC
  3 .comment      00000030  00000000  00000000  00000e60  2**0
                  CONTENTS, READONLY
  4 .note.gnu.avr.deviceinfo 0000003c  00000000  00000000  00000e90  2**2
                  CONTENTS, READONLY
  5 .debug_aranges 00000140  00000000  00000000  00000ecc  2**0
                  CONTENTS, READONLY, DEBUGGING
  6 .debug_info   00001b2a  00000000  00000000  0000100c  2**0
                  CONTENTS, READONLY, DEBUGGING
  7 .debug_abbrev 00000b65  00000000  00000000  00002b36  2**0
                  CONTENTS, READONLY, DEBUGGING
  8 .debug_line   00000d18  00000000  00000000  0000369b  2**0
                  CONTENTS, READONLY, DEBUGGING
  9 .debug_frame  000003bc  00000000  00000000  000043b4  2**2
                  CONTENTS, READONLY, DEBUGGING
 10 .debug_str    000006fb  00000000  00000000  00004770  2**0
                  CONTENTS, READONLY, DEBUGGING
 11 .debug_loc    00001542  00000000  00000000  00004e6b  2**0
                  CONTENTS, READONLY, DEBUGGING
 12 .debug_ranges 00000120  00000000  00000000  000063ad  2**0
                  CONTENTS, READONLY, DEBUGGING

Disassembly of section .text:

00000000 <__vectors>:
   0:	0c 94 2a 00 	jmp	0x54	; 0x54 <__ctors_end>
   4:	0c 94 47 00 	jmp	0x8e	; 0x8e <__bad_interrupt>
   8:	0c 94 47 00 	jmp	0x8e	; 0x8e <__bad_interrupt>
   c:	0c 94 47 00 	jmp	0x8e	; 0x8e <__bad_interrupt>
  10:	0c 94 47 00 	jmp	0x8e	; 0x8e <__bad_interrupt>
  14:	0c 94 47 00 	jmp	0x8e	; 0x8e <__bad_interrupt>
  18:	0c 94 47 00 	jmp	0x8e	; 0x8e <__bad_interrupt>
  1c:	0c 94 08 05 	jmp	0xa10	; 0xa10 <__vector_7>
  20:	0c 94 47 00 	jmp	0x8e	; 0x8e <__bad_interrupt>
  24:	0c 94 47 00 	jmp	0x8e	; 0x8e <__bad_interrupt>
  28:	0c 94 47 00 	jmp	0x8e	; 0x8e <__bad_interrupt>
  2c:	0c 94 47 00 	jmp	0x8e	; 0x8e <__bad_interrupt>
  30:	0c 94 47 00 	jmp	0x8e	; 0x8e <__bad_interrupt>
  34:	0c 94 b0 02 	jmp	0x560	; 0x560 <__vector_13>
  38:	0c 94 dc 02 	jmp	0x5b8	; 0x5b8 <__vector_14>
  3c:	0c 94 47 00 	jmp	0x8e	; 0x8e <__bad_interrupt>
  40:	0c 94 47 00 	jmp	0x8e	; 0x8e <__bad_interrupt>
  44:	0c 94 47 00 	jmp	0x8e	; 0x8e <__bad_interrupt>
  48:	0c 94 47 00 	jmp	0x8e	; 0x8e <__bad_interrupt>
  4c:	0c 94 47 00 	jmp	0x8e	; 0x8e <__bad_interrupt>
  50:	0c 94 47 00 	jmp	0x8e	; 0x8e <__bad_interrupt>

00000054 <__ctors_end>:
  54:	11 24       	eor	r1, r1
  56:	1f be       	out	0x3f, r1	; 63
  58:	cf e5       	ldi	r28, 0x5F	; 95
  5a:	d8 e0       	ldi	r29, 0x08	; 8
  5c:	de bf       	out	0x3e, r29	; 62
  5e:	cd bf       	out	0x3d, r28	; 61

00000060 <__do_copy_data>:
  60:	12 e0       	ldi	r17, 0x02	; 2
  62:	a0 e6       	ldi	r26, 0x60	; 96
  64:	b0 e0       	ldi	r27, 0x00	; 0
  66:	ec e0       	ldi	r30, 0x0C	; 12
  68:	fc e0       	ldi	r31, 0x0C	; 12
  6a:	02 c0       	rjmp	.+4      	; 0x70 <__do_copy_data+0x10>
  6c:	05 90       	lpm	r0, Z+
  6e:	0d 92       	st	X+, r0
  70:	a0 32       	cpi	r26, 0x20	; 32
  72:	b1 07       	cpc	r27, r17
  74:	d9 f7       	brne	.-10     	; 0x6c <__do_copy_data+0xc>

00000076 <__do_clear_bss>:
  76:	23 e0       	ldi	r18, 0x03	; 3
  78:	a0 e2       	ldi	r26, 0x20	; 32
  7a:	b2 e0       	ldi	r27, 0x02	; 2
  7c:	01 c0       	rjmp	.+2      	; 0x80 <.do_clear_bss_start>

0000007e <.do_clear_bss_loop>:
  7e:	1d 92       	st	X+, r1

00000080 <.do_clear_bss_start>:
  80:	ad 39       	cpi	r26, 0x9D	; 157
  82:	b2 07       	cpc	r27, r18
  84:	e1 f7       	brne	.-8      	; 0x7e <.do_clear_bss_loop>
  86:	0e 94 62 04 	call	0x8c4	; 0x8c4 <main>
  8a:	0c 94 04 06 	jmp	0xc08	; 0xc08 <_exit>

0000008e <__bad_interrupt>:
  8e:	0c 94 00 00 	jmp	0	; 0x0 <__vectors>

00000092 <buildVer>:
	static char build[] = "00000000000000000";
	
	/*
	*	major and minor version
	*/
	build[0] = verMajor;
  92:	e0 e6       	ldi	r30, 0x60	; 96
  94:	f0 e0       	ldi	r31, 0x00	; 0
  96:	81 e3       	ldi	r24, 0x31	; 49
  98:	80 83       	st	Z, r24
	build[1] = '.';
  9a:	2e e2       	ldi	r18, 0x2E	; 46
  9c:	21 83       	std	Z+1, r18	; 0x01
	build[2] = ' ';
  9e:	90 e2       	ldi	r25, 0x20	; 32
  a0:	92 83       	std	Z+2, r25	; 0x02
	build[3] = verMinor;
  a2:	30 e3       	ldi	r19, 0x30	; 48
  a4:	33 83       	std	Z+3, r19	; 0x03
	build[4] = '.';
  a6:	24 83       	std	Z+4, r18	; 0x04
	build[5] = ' ';
  a8:	95 83       	std	Z+5, r25	; 0x05
		
	/*
	*	time.: hour|min
	*/
	build[6] = __TIME__[0];
  aa:	86 83       	std	Z+6, r24	; 0x06
	build[7] = __TIME__[1];
  ac:	87 83       	std	Z+7, r24	; 0x07
	build[8] = __TIME__[3];
  ae:	84 e3       	ldi	r24, 0x34	; 52
  b0:	80 87       	std	Z+8, r24	; 0x08
	build[9] = __TIME__[4];
  b2:	88 e3       	ldi	r24, 0x38	; 56
  b4:	81 87       	std	Z+9, r24	; 0x09
	
	build[10] = '.';
  b6:	22 87       	std	Z+10, r18	; 0x0a
	build[11] = ' ';
  b8:	93 87       	std	Z+11, r25	; 0x0b
	
	/*
	*	day
	*/
	build[12] = ((__DATE__[4] >= '0') ? (__DATE__[4]) : '0');
  ba:	34 87       	std	Z+12, r19	; 0x0c
	build[13] = (__DATE__[ 5]);
  bc:	85 87       	std	Z+13, r24	; 0x0d
	
	if(__DATE__[0] == 'J' && __DATE__[1] == 'u' && __DATE__[2] == 'l')
	build[14] = '7'; // Juli
	
	if(__DATE__[0] == 'A' && __DATE__[1] == 'u')
	build[14] = '8'; // August
  be:	86 87       	std	Z+14, r24	; 0x0e
	if(__DATE__[0] == 'D'){
		build[14] = '1';
		build[15] = '2'; // Dezember
	}

	build[16] = '\0';
  c0:	10 8a       	std	Z+16, r1	; 0x10
	
	return build;
}
  c2:	cf 01       	movw	r24, r30
  c4:	08 95       	ret

000000c6 <cmdSearch>:
	{
		return cmd->table[i].instruction;
	}
	
	return NULL;
}
  c6:	0f 93       	push	r16
  c8:	1f 93       	push	r17
  ca:	cf 93       	push	r28
  cc:	df 93       	push	r29
  ce:	00 97       	sbiw	r24, 0x00	; 0
  d0:	c1 f0       	breq	.+48     	; 0x102 <cmdSearch+0x3c>
  d2:	61 15       	cp	r22, r1
  d4:	71 05       	cpc	r23, r1
  d6:	c1 f0       	breq	.+48     	; 0x108 <cmdSearch+0x42>
  d8:	ec 01       	movw	r28, r24
  da:	0e 94 ad 05 	call	0xb5a	; 0xb5a <strstr>
  de:	8c 01       	movw	r16, r24
  e0:	60 e0       	ldi	r22, 0x00	; 0
  e2:	70 e0       	ldi	r23, 0x00	; 0
  e4:	ce 01       	movw	r24, r28
  e6:	0e 94 a2 05 	call	0xb44	; 0xb44 <strchr>
  ea:	89 2b       	or	r24, r25
  ec:	81 f0       	breq	.+32     	; 0x10e <cmdSearch+0x48>
  ee:	01 15       	cp	r16, r1
  f0:	11 05       	cpc	r17, r1
  f2:	81 f0       	breq	.+32     	; 0x114 <cmdSearch+0x4e>
  f4:	10 93 21 02 	sts	0x0221, r17	; 0x800221 <__data_end+0x1>
  f8:	00 93 20 02 	sts	0x0220, r16	; 0x800220 <__data_end>
  fc:	80 2f       	mov	r24, r16
  fe:	91 2f       	mov	r25, r17
 100:	0b c0       	rjmp	.+22     	; 0x118 <cmdSearch+0x52>
 102:	80 e0       	ldi	r24, 0x00	; 0
 104:	90 e0       	ldi	r25, 0x00	; 0
 106:	08 c0       	rjmp	.+16     	; 0x118 <cmdSearch+0x52>
 108:	80 e0       	ldi	r24, 0x00	; 0
 10a:	90 e0       	ldi	r25, 0x00	; 0
 10c:	05 c0       	rjmp	.+10     	; 0x118 <cmdSearch+0x52>
 10e:	80 e0       	ldi	r24, 0x00	; 0
 110:	90 e0       	ldi	r25, 0x00	; 0
 112:	02 c0       	rjmp	.+4      	; 0x118 <cmdSearch+0x52>
 114:	80 2f       	mov	r24, r16
 116:	91 2f       	mov	r25, r17
 118:	df 91       	pop	r29
 11a:	cf 91       	pop	r28
 11c:	1f 91       	pop	r17
 11e:	0f 91       	pop	r16
 120:	08 95       	ret

00000122 <cmdGetIndex>:
 122:	ef 92       	push	r14
 124:	ff 92       	push	r15
 126:	0f 93       	push	r16
 128:	1f 93       	push	r17
 12a:	cf 93       	push	r28
 12c:	df 93       	push	r29
 12e:	fc 01       	movw	r30, r24
 130:	22 81       	ldd	r18, Z+2	; 0x02
 132:	33 81       	ldd	r19, Z+3	; 0x03
 134:	23 2b       	or	r18, r19
 136:	21 f1       	breq	.+72     	; 0x180 <cmdGetIndex+0x5e>
 138:	7b 01       	movw	r14, r22
 13a:	8c 01       	movw	r16, r24
 13c:	80 e0       	ldi	r24, 0x00	; 0
 13e:	90 e0       	ldi	r25, 0x00	; 0
 140:	c0 e0       	ldi	r28, 0x00	; 0
 142:	d7 e2       	ldi	r29, 0x27	; 39
 144:	d8 9f       	mul	r29, r24
 146:	90 01       	movw	r18, r0
 148:	d9 9f       	mul	r29, r25
 14a:	30 0d       	add	r19, r0
 14c:	11 24       	eor	r1, r1
 14e:	f8 01       	movw	r30, r16
 150:	60 81       	ld	r22, Z
 152:	71 81       	ldd	r23, Z+1	; 0x01
 154:	62 0f       	add	r22, r18
 156:	73 1f       	adc	r23, r19
 158:	6c 5e       	subi	r22, 0xEC	; 236
 15a:	7f 4f       	sbci	r23, 0xFF	; 255
 15c:	c7 01       	movw	r24, r14
 15e:	0e 94 63 00 	call	0xc6	; 0xc6 <cmdSearch>
 162:	89 2b       	or	r24, r25
 164:	11 f0       	breq	.+4      	; 0x16a <cmdGetIndex+0x48>
 166:	8c 2f       	mov	r24, r28
 168:	0c c0       	rjmp	.+24     	; 0x182 <cmdGetIndex+0x60>
 16a:	cf 5f       	subi	r28, 0xFF	; 255
 16c:	8c 2f       	mov	r24, r28
 16e:	90 e0       	ldi	r25, 0x00	; 0
 170:	f8 01       	movw	r30, r16
 172:	22 81       	ldd	r18, Z+2	; 0x02
 174:	33 81       	ldd	r19, Z+3	; 0x03
 176:	82 17       	cp	r24, r18
 178:	93 07       	cpc	r25, r19
 17a:	20 f3       	brcs	.-56     	; 0x144 <cmdGetIndex+0x22>
 17c:	8f ef       	ldi	r24, 0xFF	; 255
 17e:	01 c0       	rjmp	.+2      	; 0x182 <cmdGetIndex+0x60>
 180:	8f ef       	ldi	r24, 0xFF	; 255
 182:	df 91       	pop	r29
 184:	cf 91       	pop	r28
 186:	1f 91       	pop	r17
 188:	0f 91       	pop	r16
 18a:	ff 90       	pop	r15
 18c:	ef 90       	pop	r14
 18e:	08 95       	ret

00000190 <cmdCntPara>:
 190:	ef 92       	push	r14
 192:	ff 92       	push	r15
 194:	1f 93       	push	r17
 196:	cf 93       	push	r28
 198:	df 93       	push	r29
 19a:	7c 01       	movw	r14, r24
 19c:	eb 01       	movw	r28, r22
 19e:	6a e3       	ldi	r22, 0x3A	; 58
 1a0:	70 e0       	ldi	r23, 0x00	; 0
 1a2:	ce 01       	movw	r24, r28
 1a4:	0e 94 a2 05 	call	0xb44	; 0xb44 <strchr>
 1a8:	00 97       	sbiw	r24, 0x00	; 0
 1aa:	41 f0       	breq	.+16     	; 0x1bc <cmdCntPara+0x2c>
 1ac:	11 e0       	ldi	r17, 0x01	; 1
 1ae:	dc 01       	movw	r26, r24
 1b0:	11 96       	adiw	r26, 0x01	; 1
 1b2:	8c 91       	ld	r24, X
 1b4:	81 11       	cpse	r24, r1
 1b6:	03 c0       	rjmp	.+6      	; 0x1be <cmdCntPara+0x2e>
 1b8:	10 e0       	ldi	r17, 0x00	; 0
 1ba:	01 c0       	rjmp	.+2      	; 0x1be <cmdCntPara+0x2e>
 1bc:	10 e0       	ldi	r17, 0x00	; 0
 1be:	20 97       	sbiw	r28, 0x00	; 0
 1c0:	51 f0       	breq	.+20     	; 0x1d6 <cmdCntPara+0x46>
 1c2:	6c e2       	ldi	r22, 0x2C	; 44
 1c4:	70 e0       	ldi	r23, 0x00	; 0
 1c6:	ce 01       	movw	r24, r28
 1c8:	01 96       	adiw	r24, 0x01	; 1
 1ca:	0e 94 a2 05 	call	0xb44	; 0xb44 <strchr>
 1ce:	ec 01       	movw	r28, r24
 1d0:	1f 5f       	subi	r17, 0xFF	; 255
 1d2:	89 2b       	or	r24, r25
 1d4:	b1 f7       	brne	.-20     	; 0x1c2 <cmdCntPara+0x32>
 1d6:	d7 01       	movw	r26, r14
 1d8:	14 96       	adiw	r26, 0x04	; 4
 1da:	ed 91       	ld	r30, X+
 1dc:	fc 91       	ld	r31, X
 1de:	15 97       	sbiw	r26, 0x05	; 5
 1e0:	8f ef       	ldi	r24, 0xFF	; 255
 1e2:	81 0f       	add	r24, r17
 1e4:	82 83       	std	Z+2, r24	; 0x02
 1e6:	df 91       	pop	r29
 1e8:	cf 91       	pop	r28
 1ea:	1f 91       	pop	r17
 1ec:	ff 90       	pop	r15
 1ee:	ef 90       	pop	r14
 1f0:	08 95       	ret

000001f2 <cmdGetName>:

const char			*cmdGetName			( cmd_t *cmd , char *input )						
{
 1f2:	cf 93       	push	r28
 1f4:	df 93       	push	r29
 1f6:	ec 01       	movw	r28, r24
	int8_t ret = cmdGetIndex( cmd , input );
 1f8:	0e 94 91 00 	call	0x122	; 0x122 <cmdGetIndex>
	
	if ( ret != (int8_t) -1 )
 1fc:	8f 3f       	cpi	r24, 0xFF	; 255
 1fe:	51 f0       	breq	.+20     	; 0x214 <cmdGetName+0x22>
	{
		return cmd->table[ret].name;
 200:	28 81       	ld	r18, Y
 202:	39 81       	ldd	r19, Y+1	; 0x01
 204:	a9 01       	movw	r20, r18
 206:	67 e2       	ldi	r22, 0x27	; 39
 208:	86 02       	muls	r24, r22
 20a:	40 0d       	add	r20, r0
 20c:	51 1d       	adc	r21, r1
 20e:	11 24       	eor	r1, r1
 210:	ca 01       	movw	r24, r20
 212:	02 c0       	rjmp	.+4      	; 0x218 <cmdGetName+0x26>
	}
		
	return NULL;
 214:	80 e0       	ldi	r24, 0x00	; 0
 216:	90 e0       	ldi	r25, 0x00	; 0
}
 218:	df 91       	pop	r29
 21a:	cf 91       	pop	r28
 21c:	08 95       	ret

0000021e <cmdGetFunc>:

void				*cmdGetFunc			( cmd_t *cmd , char *input )						
{
 21e:	cf 93       	push	r28
 220:	df 93       	push	r29
 222:	ec 01       	movw	r28, r24
	int8_t ret = cmdGetIndex( cmd , input );
 224:	0e 94 91 00 	call	0x122	; 0x122 <cmdGetIndex>
	if ( ret != (int8_t) -1 )
 228:	8f 3f       	cpi	r24, 0xFF	; 255
 22a:	51 f0       	breq	.+20     	; 0x240 <cmdGetFunc+0x22>
	{
		return cmd->table[ret].fnc;
 22c:	e8 81       	ld	r30, Y
 22e:	f9 81       	ldd	r31, Y+1	; 0x01
 230:	97 e2       	ldi	r25, 0x27	; 39
 232:	89 02       	muls	r24, r25
 234:	e0 0d       	add	r30, r0
 236:	f1 1d       	adc	r31, r1
 238:	11 24       	eor	r1, r1
 23a:	83 a1       	ldd	r24, Z+35	; 0x23
 23c:	94 a1       	ldd	r25, Z+36	; 0x24
 23e:	02 c0       	rjmp	.+4      	; 0x244 <cmdGetFunc+0x26>
	}
	return NULL;
 240:	80 e0       	ldi	r24, 0x00	; 0
 242:	90 e0       	ldi	r25, 0x00	; 0
}
 244:	df 91       	pop	r29
 246:	cf 91       	pop	r28
 248:	08 95       	ret

0000024a <cmdGetPara>:

char 				*cmdGetPara 		( cmd_t *cmd , char *out , char *in , uint8_t num )	
{
 24a:	bf 92       	push	r11
 24c:	cf 92       	push	r12
 24e:	df 92       	push	r13
 250:	ef 92       	push	r14
 252:	ff 92       	push	r15
 254:	0f 93       	push	r16
 256:	1f 93       	push	r17
 258:	cf 93       	push	r28
 25a:	df 93       	push	r29
	const char 	*rawPtr		= NULL;

	uint8_t x;
	
	for ( x = 0 ; x < cmd->tabLen ; x++ )
 25c:	dc 01       	movw	r26, r24
 25e:	12 96       	adiw	r26, 0x02	; 2
 260:	ed 91       	ld	r30, X+
 262:	fc 91       	ld	r31, X
 264:	13 97       	sbiw	r26, 0x03	; 3
 266:	ef 2b       	or	r30, r31
 268:	09 f4       	brne	.+2      	; 0x26c <cmdGetPara+0x22>
 26a:	54 c0       	rjmp	.+168    	; 0x314 <cmdGetPara+0xca>
 26c:	c2 2e       	mov	r12, r18
 26e:	8a 01       	movw	r16, r20
 270:	f7 2e       	mov	r15, r23
 272:	e6 2e       	mov	r14, r22
 274:	ec 01       	movw	r28, r24
 276:	80 e0       	ldi	r24, 0x00	; 0
 278:	90 e0       	ldi	r25, 0x00	; 0
 27a:	d1 2c       	mov	r13, r1
	{
		rawPtr = cmdSearch( in , ( char * ) cmd->table[x].instruction );
 27c:	0f 2e       	mov	r0, r31
 27e:	f7 e2       	ldi	r31, 0x27	; 39
 280:	bf 2e       	mov	r11, r31
 282:	f0 2d       	mov	r31, r0
 284:	b8 9e       	mul	r11, r24
 286:	f0 01       	movw	r30, r0
 288:	b9 9e       	mul	r11, r25
 28a:	f0 0d       	add	r31, r0
 28c:	11 24       	eor	r1, r1
 28e:	68 81       	ld	r22, Y
 290:	79 81       	ldd	r23, Y+1	; 0x01
 292:	6e 0f       	add	r22, r30
 294:	7f 1f       	adc	r23, r31
 296:	6c 5e       	subi	r22, 0xEC	; 236
 298:	7f 4f       	sbci	r23, 0xFF	; 255
 29a:	c8 01       	movw	r24, r16
 29c:	0e 94 63 00 	call	0xc6	; 0xc6 <cmdSearch>
		if ( rawPtr != NULL )
 2a0:	89 2b       	or	r24, r25
 2a2:	d9 f5       	brne	.+118    	; 0x31a <cmdGetPara+0xd0>
{
	const char 	*rawPtr		= NULL;

	uint8_t x;
	
	for ( x = 0 ; x < cmd->tabLen ; x++ )
 2a4:	d3 94       	inc	r13
 2a6:	8d 2d       	mov	r24, r13
 2a8:	90 e0       	ldi	r25, 0x00	; 0
 2aa:	2a 81       	ldd	r18, Y+2	; 0x02
 2ac:	3b 81       	ldd	r19, Y+3	; 0x03
 2ae:	82 17       	cp	r24, r18
 2b0:	93 07       	cpc	r25, r19
 2b2:	40 f3       	brcs	.-48     	; 0x284 <cmdGetPara+0x3a>
 2b4:	2f c0       	rjmp	.+94     	; 0x314 <cmdGetPara+0xca>
	char *streamPtr = in;
	
	streamPtr = strchr( in , CMD_RAW_DATA_BEGINN[0] ) + 1;
	
	uint8_t i;
	for ( i = 0 ; i < num ; i++ )
 2b6:	c0 e0       	ldi	r28, 0x00	; 0
	{
		streamPtr = strchr( streamPtr , CMD_RAW_PARA_DELIMITER[0] ) + 1;
 2b8:	6c e2       	ldi	r22, 0x2C	; 44
 2ba:	70 e0       	ldi	r23, 0x00	; 0
 2bc:	0e 94 a2 05 	call	0xb44	; 0xb44 <strchr>
 2c0:	01 96       	adiw	r24, 0x01	; 1
	char *streamPtr = in;
	
	streamPtr = strchr( in , CMD_RAW_DATA_BEGINN[0] ) + 1;
	
	uint8_t i;
	for ( i = 0 ; i < num ; i++ )
 2c2:	cf 5f       	subi	r28, 0xFF	; 255
 2c4:	cc 12       	cpse	r12, r28
 2c6:	f8 cf       	rjmp	.-16     	; 0x2b8 <cmdGetPara+0x6e>
	{
		streamPtr = strchr( streamPtr , CMD_RAW_PARA_DELIMITER[0] ) + 1;
	}
		
	char *outPtr = out;
	while( *streamPtr != '\0' && *streamPtr != CMD_RAW_PARA_DELIMITER[0] && *streamPtr != CMD_DATA_END )
 2c8:	fc 01       	movw	r30, r24
 2ca:	20 81       	ld	r18, Z
 2cc:	22 23       	and	r18, r18
 2ce:	99 f0       	breq	.+38     	; 0x2f6 <cmdGetPara+0xac>
 2d0:	2c 32       	cpi	r18, 0x2C	; 44
 2d2:	a1 f0       	breq	.+40     	; 0x2fc <cmdGetPara+0xb2>
	{
		if ( *( streamPtr )  == CMD_CRC_BEGINN[0] )
 2d4:	23 32       	cpi	r18, 0x23	; 35
 2d6:	a9 f0       	breq	.+42     	; 0x302 <cmdGetPara+0xb8>
 2d8:	ae 2d       	mov	r26, r14
 2da:	bf 2d       	mov	r27, r15
 2dc:	31 96       	adiw	r30, 0x01	; 1
 2de:	02 c0       	rjmp	.+4      	; 0x2e4 <cmdGetPara+0x9a>
 2e0:	23 32       	cpi	r18, 0x23	; 35
 2e2:	91 f0       	breq	.+36     	; 0x308 <cmdGetPara+0xbe>
		{
			return NULL;
		}
		*outPtr++ = *streamPtr++;
 2e4:	2d 93       	st	X+, r18
	{
		streamPtr = strchr( streamPtr , CMD_RAW_PARA_DELIMITER[0] ) + 1;
	}
		
	char *outPtr = out;
	while( *streamPtr != '\0' && *streamPtr != CMD_RAW_PARA_DELIMITER[0] && *streamPtr != CMD_DATA_END )
 2e6:	21 91       	ld	r18, Z+
 2e8:	22 23       	and	r18, r18
 2ea:	89 f0       	breq	.+34     	; 0x30e <cmdGetPara+0xc4>
 2ec:	2c 32       	cpi	r18, 0x2C	; 44
 2ee:	c1 f7       	brne	.-16     	; 0x2e0 <cmdGetPara+0x96>
			return NULL;
		}
		*outPtr++ = *streamPtr++;
	}
	
	return out;
 2f0:	8e 2d       	mov	r24, r14
 2f2:	9f 2d       	mov	r25, r15
 2f4:	1b c0       	rjmp	.+54     	; 0x32c <cmdGetPara+0xe2>
 2f6:	8e 2d       	mov	r24, r14
 2f8:	9f 2d       	mov	r25, r15
 2fa:	18 c0       	rjmp	.+48     	; 0x32c <cmdGetPara+0xe2>
 2fc:	8e 2d       	mov	r24, r14
 2fe:	9f 2d       	mov	r25, r15
 300:	15 c0       	rjmp	.+42     	; 0x32c <cmdGetPara+0xe2>
	char *outPtr = out;
	while( *streamPtr != '\0' && *streamPtr != CMD_RAW_PARA_DELIMITER[0] && *streamPtr != CMD_DATA_END )
	{
		if ( *( streamPtr )  == CMD_CRC_BEGINN[0] )
		{
			return NULL;
 302:	80 e0       	ldi	r24, 0x00	; 0
 304:	90 e0       	ldi	r25, 0x00	; 0
 306:	12 c0       	rjmp	.+36     	; 0x32c <cmdGetPara+0xe2>
 308:	80 e0       	ldi	r24, 0x00	; 0
 30a:	90 e0       	ldi	r25, 0x00	; 0
 30c:	0f c0       	rjmp	.+30     	; 0x32c <cmdGetPara+0xe2>
		}
		*outPtr++ = *streamPtr++;
	}
	
	return out;
 30e:	8e 2d       	mov	r24, r14
 310:	9f 2d       	mov	r25, r15
 312:	0c c0       	rjmp	.+24     	; 0x32c <cmdGetPara+0xe2>
		}
	}
	
	if ( rawPtr == NULL )
	{
		return NULL;
 314:	80 e0       	ldi	r24, 0x00	; 0
 316:	90 e0       	ldi	r25, 0x00	; 0
 318:	09 c0       	rjmp	.+18     	; 0x32c <cmdGetPara+0xe2>
	}
		
	char *streamPtr = in;
	
	streamPtr = strchr( in , CMD_RAW_DATA_BEGINN[0] ) + 1;
 31a:	6a e3       	ldi	r22, 0x3A	; 58
 31c:	70 e0       	ldi	r23, 0x00	; 0
 31e:	c8 01       	movw	r24, r16
 320:	0e 94 a2 05 	call	0xb44	; 0xb44 <strchr>
 324:	01 96       	adiw	r24, 0x01	; 1
	
	uint8_t i;
	for ( i = 0 ; i < num ; i++ )
 326:	c1 10       	cpse	r12, r1
 328:	c6 cf       	rjmp	.-116    	; 0x2b6 <cmdGetPara+0x6c>
 32a:	ce cf       	rjmp	.-100    	; 0x2c8 <cmdGetPara+0x7e>
		}
		*outPtr++ = *streamPtr++;
	}
	
	return out;
}
 32c:	df 91       	pop	r29
 32e:	cf 91       	pop	r28
 330:	1f 91       	pop	r17
 332:	0f 91       	pop	r16
 334:	ff 90       	pop	r15
 336:	ef 90       	pop	r14
 338:	df 90       	pop	r13
 33a:	cf 90       	pop	r12
 33c:	bf 90       	pop	r11
 33e:	08 95       	ret

00000340 <cmdGetCRC>:

char 				*cmdGetCRC 			( char *out , char *stream )						
{
 340:	cf 93       	push	r28
 342:	df 93       	push	r29
 344:	d8 2f       	mov	r29, r24
 346:	c9 2f       	mov	r28, r25
 348:	cb 01       	movw	r24, r22
	char *crcPtr = stream;
	char *outPtr = out;
	
	crcPtr = strchr( crcPtr , CMD_CRC_BEGINN[0] ) + 1;
 34a:	63 e2       	ldi	r22, 0x23	; 35
 34c:	70 e0       	ldi	r23, 0x00	; 0
 34e:	0e 94 a2 05 	call	0xb44	; 0xb44 <strchr>
 352:	fc 01       	movw	r30, r24
	
	if ( ( crcPtr - 1 ) == NULL )
 354:	89 2b       	or	r24, r25
 356:	79 f0       	breq	.+30     	; 0x376 <cmdGetCRC+0x36>
	{
		return NULL;
	}
	
	while( *crcPtr != '\0' && *crcPtr != CMD_DATA_END )
 358:	91 81       	ldd	r25, Z+1	; 0x01
 35a:	99 23       	and	r25, r25
 35c:	51 f0       	breq	.+20     	; 0x372 <cmdGetCRC+0x32>
 35e:	ad 2f       	mov	r26, r29
 360:	bc 2f       	mov	r27, r28
 362:	32 96       	adiw	r30, 0x02	; 2
	{
		*outPtr++ = *crcPtr++;
 364:	9d 93       	st	X+, r25
	if ( ( crcPtr - 1 ) == NULL )
	{
		return NULL;
	}
	
	while( *crcPtr != '\0' && *crcPtr != CMD_DATA_END )
 366:	91 91       	ld	r25, Z+
 368:	91 11       	cpse	r25, r1
 36a:	fc cf       	rjmp	.-8      	; 0x364 <cmdGetCRC+0x24>
	{
		*outPtr++ = *crcPtr++;
	}	
	
	return out;	
 36c:	ed 2f       	mov	r30, r29
 36e:	fc 2f       	mov	r31, r28
 370:	02 c0       	rjmp	.+4      	; 0x376 <cmdGetCRC+0x36>
 372:	ed 2f       	mov	r30, r29
 374:	fc 2f       	mov	r31, r28
}
 376:	cf 01       	movw	r24, r30
 378:	df 91       	pop	r29
 37a:	cf 91       	pop	r28
 37c:	08 95       	ret

0000037e <cmdHelp>:

char				*cmdHelp			( cmd_t *cmd , char *helpBuff )							
{
 37e:	8f 92       	push	r8
 380:	9f 92       	push	r9
 382:	af 92       	push	r10
 384:	bf 92       	push	r11
 386:	cf 92       	push	r12
 388:	df 92       	push	r13
 38a:	ef 92       	push	r14
 38c:	ff 92       	push	r15
 38e:	0f 93       	push	r16
 390:	1f 93       	push	r17
 392:	cf 93       	push	r28
 394:	df 93       	push	r29
 396:	5c 01       	movw	r10, r24
 398:	eb 01       	movw	r28, r22
	
	memset( helpBuff , 0 , strlen( helpBuff ) );
 39a:	fb 01       	movw	r30, r22
 39c:	01 90       	ld	r0, Z+
 39e:	00 20       	and	r0, r0
 3a0:	e9 f7       	brne	.-6      	; 0x39c <cmdHelp+0x1e>
 3a2:	31 97       	sbiw	r30, 0x01	; 1
 3a4:	af 01       	movw	r20, r30
 3a6:	46 1b       	sub	r20, r22
 3a8:	57 0b       	sbc	r21, r23
 3aa:	60 e0       	ldi	r22, 0x00	; 0
 3ac:	70 e0       	ldi	r23, 0x00	; 0
 3ae:	ce 01       	movw	r24, r28
 3b0:	0e 94 90 05 	call	0xb20	; 0xb20 <memset>
	
	strcpy( ( char * ) helpBuff , "Kommando Syntax: " );
 3b4:	82 e1       	ldi	r24, 0x12	; 18
 3b6:	e8 e7       	ldi	r30, 0x78	; 120
 3b8:	f0 e0       	ldi	r31, 0x00	; 0
 3ba:	de 01       	movw	r26, r28
 3bc:	01 90       	ld	r0, Z+
 3be:	0d 92       	st	X+, r0
 3c0:	8a 95       	dec	r24
 3c2:	e1 f7       	brne	.-8      	; 0x3bc <cmdHelp+0x3e>
	strcat( ( char * ) helpBuff , "[KOMMANDO WORD][PARAMETER START][PARAMETER][KOMMANDO ENDE]\r\n" );
 3c4:	de 01       	movw	r26, r28
 3c6:	0d 90       	ld	r0, X+
 3c8:	00 20       	and	r0, r0
 3ca:	e9 f7       	brne	.-6      	; 0x3c6 <cmdHelp+0x48>
 3cc:	11 97       	sbiw	r26, 0x01	; 1
 3ce:	8d e3       	ldi	r24, 0x3D	; 61
 3d0:	ea e8       	ldi	r30, 0x8A	; 138
 3d2:	f0 e0       	ldi	r31, 0x00	; 0
 3d4:	01 90       	ld	r0, Z+
 3d6:	0d 92       	st	X+, r0
 3d8:	8a 95       	dec	r24
 3da:	e1 f7       	brne	.-8      	; 0x3d4 <cmdHelp+0x56>
	
	strcat( ( char * ) helpBuff , "'" );
 3dc:	fe 01       	movw	r30, r28
 3de:	01 90       	ld	r0, Z+
 3e0:	00 20       	and	r0, r0
 3e2:	e9 f7       	brne	.-6      	; 0x3de <cmdHelp+0x60>
 3e4:	31 97       	sbiw	r30, 0x01	; 1
 3e6:	87 e2       	ldi	r24, 0x27	; 39
 3e8:	90 e0       	ldi	r25, 0x00	; 0
 3ea:	91 83       	std	Z+1, r25	; 0x01
 3ec:	80 83       	st	Z, r24
	strcat( ( char * ) helpBuff , CMD_RAW_DATA_BEGINN );	
 3ee:	fe 01       	movw	r30, r28
 3f0:	01 90       	ld	r0, Z+
 3f2:	00 20       	and	r0, r0
 3f4:	e9 f7       	brne	.-6      	; 0x3f0 <cmdHelp+0x72>
 3f6:	31 97       	sbiw	r30, 0x01	; 1
 3f8:	2a e3       	ldi	r18, 0x3A	; 58
 3fa:	30 e0       	ldi	r19, 0x00	; 0
 3fc:	31 83       	std	Z+1, r19	; 0x01
 3fe:	20 83       	st	Z, r18
	strcat( ( char * ) helpBuff , "' ->[PARA. START]\r\n" );
 400:	de 01       	movw	r26, r28
 402:	0d 90       	ld	r0, X+
 404:	00 20       	and	r0, r0
 406:	e9 f7       	brne	.-6      	; 0x402 <__LOCK_REGION_LENGTH__+0x2>
 408:	11 97       	sbiw	r26, 0x01	; 1
 40a:	24 e1       	ldi	r18, 0x14	; 20
 40c:	e7 ec       	ldi	r30, 0xC7	; 199
 40e:	f0 e0       	ldi	r31, 0x00	; 0
 410:	01 90       	ld	r0, Z+
 412:	0d 92       	st	X+, r0
 414:	2a 95       	dec	r18
 416:	e1 f7       	brne	.-8      	; 0x410 <__LOCK_REGION_LENGTH__+0x10>

	strcat( ( char * ) helpBuff , "'" );
 418:	fe 01       	movw	r30, r28
 41a:	01 90       	ld	r0, Z+
 41c:	00 20       	and	r0, r0
 41e:	e9 f7       	brne	.-6      	; 0x41a <__LOCK_REGION_LENGTH__+0x1a>
 420:	31 97       	sbiw	r30, 0x01	; 1
 422:	91 83       	std	Z+1, r25	; 0x01
 424:	80 83       	st	Z, r24
	strcat( ( char * ) helpBuff , CMD_RAW_PARA_DELIMITER );
 426:	fe 01       	movw	r30, r28
 428:	01 90       	ld	r0, Z+
 42a:	00 20       	and	r0, r0
 42c:	e9 f7       	brne	.-6      	; 0x428 <__LOCK_REGION_LENGTH__+0x28>
 42e:	31 97       	sbiw	r30, 0x01	; 1
 430:	2c e2       	ldi	r18, 0x2C	; 44
 432:	30 e0       	ldi	r19, 0x00	; 0
 434:	31 83       	std	Z+1, r19	; 0x01
 436:	20 83       	st	Z, r18
	strcat( ( char * ) helpBuff , "' ->[PARA. TRENNER]\r\n" );
 438:	de 01       	movw	r26, r28
 43a:	0d 90       	ld	r0, X+
 43c:	00 20       	and	r0, r0
 43e:	e9 f7       	brne	.-6      	; 0x43a <__LOCK_REGION_LENGTH__+0x3a>
 440:	11 97       	sbiw	r26, 0x01	; 1
 442:	26 e1       	ldi	r18, 0x16	; 22
 444:	eb ed       	ldi	r30, 0xDB	; 219
 446:	f0 e0       	ldi	r31, 0x00	; 0
 448:	01 90       	ld	r0, Z+
 44a:	0d 92       	st	X+, r0
 44c:	2a 95       	dec	r18
 44e:	e1 f7       	brne	.-8      	; 0x448 <__LOCK_REGION_LENGTH__+0x48>

	strcat( ( char * ) helpBuff , "'" );
 450:	fe 01       	movw	r30, r28
 452:	01 90       	ld	r0, Z+
 454:	00 20       	and	r0, r0
 456:	e9 f7       	brne	.-6      	; 0x452 <__LOCK_REGION_LENGTH__+0x52>
 458:	31 97       	sbiw	r30, 0x01	; 1
 45a:	91 83       	std	Z+1, r25	; 0x01
 45c:	80 83       	st	Z, r24
	
	uint8_t pos = strlen( helpBuff );
 45e:	fe 01       	movw	r30, r28
 460:	01 90       	ld	r0, Z+
 462:	00 20       	and	r0, r0
 464:	e9 f7       	brne	.-6      	; 0x460 <__LOCK_REGION_LENGTH__+0x60>
	
	if ( CMD_DATA_END == '\0' )
	{
		strcat( ( char * ) helpBuff , "\\0" );
 466:	31 97       	sbiw	r30, 0x01	; 1
 468:	8c e5       	ldi	r24, 0x5C	; 92
 46a:	90 e3       	ldi	r25, 0x30	; 48
 46c:	91 83       	std	Z+1, r25	; 0x01
 46e:	80 83       	st	Z, r24
 470:	12 82       	std	Z+2, r1	; 0x02
	}
	else
	{
		helpBuff[ pos ] = CMD_DATA_END;
	}
	strcat( ( char * ) helpBuff , "' ->[KOMMANDO ENDE]\r\n\n" );
 472:	de 01       	movw	r26, r28
 474:	0d 90       	ld	r0, X+
 476:	00 20       	and	r0, r0
 478:	e9 f7       	brne	.-6      	; 0x474 <__LOCK_REGION_LENGTH__+0x74>
 47a:	11 97       	sbiw	r26, 0x01	; 1
 47c:	87 e1       	ldi	r24, 0x17	; 23
 47e:	e1 ef       	ldi	r30, 0xF1	; 241
 480:	f0 e0       	ldi	r31, 0x00	; 0
 482:	01 90       	ld	r0, Z+
 484:	0d 92       	st	X+, r0
 486:	8a 95       	dec	r24
 488:	e1 f7       	brne	.-8      	; 0x482 <__LOCK_REGION_LENGTH__+0x82>


 	strcat( ( char * ) helpBuff , "Kommandos:\r\n\n" );
 48a:	de 01       	movw	r26, r28
 48c:	0d 90       	ld	r0, X+
 48e:	00 20       	and	r0, r0
 490:	e9 f7       	brne	.-6      	; 0x48c <__LOCK_REGION_LENGTH__+0x8c>
 492:	11 97       	sbiw	r26, 0x01	; 1
 494:	8e e0       	ldi	r24, 0x0E	; 14
 496:	e8 e0       	ldi	r30, 0x08	; 8
 498:	f1 e0       	ldi	r31, 0x01	; 1
 49a:	01 90       	ld	r0, Z+
 49c:	0d 92       	st	X+, r0
 49e:	8a 95       	dec	r24
 4a0:	e1 f7       	brne	.-8      	; 0x49a <__LOCK_REGION_LENGTH__+0x9a>
	
	for ( uint8_t x = 0 ; x < cmd->tabLen ; x++ )
 4a2:	f5 01       	movw	r30, r10
 4a4:	82 81       	ldd	r24, Z+2	; 0x02
 4a6:	93 81       	ldd	r25, Z+3	; 0x03
 4a8:	89 2b       	or	r24, r25
 4aa:	09 f4       	brne	.+2      	; 0x4ae <__LOCK_REGION_LENGTH__+0xae>
 4ac:	4b c0       	rjmp	.+150    	; 0x544 <__LOCK_REGION_LENGTH__+0x144>
 4ae:	80 e0       	ldi	r24, 0x00	; 0
 4b0:	90 e0       	ldi	r25, 0x00	; 0
 4b2:	91 2c       	mov	r9, r1
	{
		strcat( ( char * ) helpBuff , cmd->table[x].name );
 4b4:	0f 2e       	mov	r0, r31
 4b6:	f7 e2       	ldi	r31, 0x27	; 39
 4b8:	8f 2e       	mov	r8, r31
 4ba:	f0 2d       	mov	r31, r0
		strcat( ( char * ) helpBuff , " " );
 4bc:	68 94       	set
 4be:	cc 24       	eor	r12, r12
 4c0:	c5 f8       	bld	r12, 5
 4c2:	d1 2c       	mov	r13, r1
		strcat( ( char * ) helpBuff , cmd->table[x].instruction );
		strcat( ( char * ) helpBuff , cmd->table[x].syntax );
		strcat( ( char * ) helpBuff , "\r\n" );
 4c4:	0f 2e       	mov	r0, r31
 4c6:	fd e0       	ldi	r31, 0x0D	; 13
 4c8:	ef 2e       	mov	r14, r31
 4ca:	fa e0       	ldi	r31, 0x0A	; 10
 4cc:	ff 2e       	mov	r15, r31
 4ce:	f0 2d       	mov	r31, r0

 	strcat( ( char * ) helpBuff , "Kommandos:\r\n\n" );
	
	for ( uint8_t x = 0 ; x < cmd->tabLen ; x++ )
	{
		strcat( ( char * ) helpBuff , cmd->table[x].name );
 4d0:	88 9e       	mul	r8, r24
 4d2:	80 01       	movw	r16, r0
 4d4:	89 9e       	mul	r8, r25
 4d6:	10 0d       	add	r17, r0
 4d8:	11 24       	eor	r1, r1
 4da:	f5 01       	movw	r30, r10
 4dc:	60 81       	ld	r22, Z
 4de:	71 81       	ldd	r23, Z+1	; 0x01
 4e0:	60 0f       	add	r22, r16
 4e2:	71 1f       	adc	r23, r17
 4e4:	ce 01       	movw	r24, r28
 4e6:	0e 94 97 05 	call	0xb2e	; 0xb2e <strcat>
		strcat( ( char * ) helpBuff , " " );
 4ea:	fe 01       	movw	r30, r28
 4ec:	01 90       	ld	r0, Z+
 4ee:	00 20       	and	r0, r0
 4f0:	e9 f7       	brne	.-6      	; 0x4ec <__LOCK_REGION_LENGTH__+0xec>
 4f2:	31 97       	sbiw	r30, 0x01	; 1
 4f4:	d1 82       	std	Z+1, r13	; 0x01
 4f6:	c0 82       	st	Z, r12
		strcat( ( char * ) helpBuff , cmd->table[x].instruction );
 4f8:	f5 01       	movw	r30, r10
 4fa:	60 81       	ld	r22, Z
 4fc:	71 81       	ldd	r23, Z+1	; 0x01
 4fe:	60 0f       	add	r22, r16
 500:	71 1f       	adc	r23, r17
 502:	6c 5e       	subi	r22, 0xEC	; 236
 504:	7f 4f       	sbci	r23, 0xFF	; 255
 506:	ce 01       	movw	r24, r28
 508:	0e 94 97 05 	call	0xb2e	; 0xb2e <strcat>
		strcat( ( char * ) helpBuff , cmd->table[x].syntax );
 50c:	f5 01       	movw	r30, r10
 50e:	80 81       	ld	r24, Z
 510:	91 81       	ldd	r25, Z+1	; 0x01
 512:	fc 01       	movw	r30, r24
 514:	e0 0f       	add	r30, r16
 516:	f1 1f       	adc	r31, r17
 518:	65 a1       	ldd	r22, Z+37	; 0x25
 51a:	76 a1       	ldd	r23, Z+38	; 0x26
 51c:	ce 01       	movw	r24, r28
 51e:	0e 94 97 05 	call	0xb2e	; 0xb2e <strcat>
		strcat( ( char * ) helpBuff , "\r\n" );
 522:	fe 01       	movw	r30, r28
 524:	01 90       	ld	r0, Z+
 526:	00 20       	and	r0, r0
 528:	e9 f7       	brne	.-6      	; 0x524 <__LOCK_REGION_LENGTH__+0x124>
 52a:	31 97       	sbiw	r30, 0x01	; 1
 52c:	f1 82       	std	Z+1, r15	; 0x01
 52e:	e0 82       	st	Z, r14
 530:	12 82       	std	Z+2, r1	; 0x02
	strcat( ( char * ) helpBuff , "' ->[KOMMANDO ENDE]\r\n\n" );


 	strcat( ( char * ) helpBuff , "Kommandos:\r\n\n" );
	
	for ( uint8_t x = 0 ; x < cmd->tabLen ; x++ )
 532:	93 94       	inc	r9
 534:	89 2d       	mov	r24, r9
 536:	90 e0       	ldi	r25, 0x00	; 0
 538:	f5 01       	movw	r30, r10
 53a:	22 81       	ldd	r18, Z+2	; 0x02
 53c:	33 81       	ldd	r19, Z+3	; 0x03
 53e:	82 17       	cp	r24, r18
 540:	93 07       	cpc	r25, r19
 542:	30 f2       	brcs	.-116    	; 0x4d0 <__LOCK_REGION_LENGTH__+0xd0>
		strcat( ( char * ) helpBuff , "\r\n" );
	}
	
	
	return helpBuff;
 544:	ce 01       	movw	r24, r28
 546:	df 91       	pop	r29
 548:	cf 91       	pop	r28
 54a:	1f 91       	pop	r17
 54c:	0f 91       	pop	r16
 54e:	ff 90       	pop	r15
 550:	ef 90       	pop	r14
 552:	df 90       	pop	r13
 554:	cf 90       	pop	r12
 556:	bf 90       	pop	r11
 558:	af 90       	pop	r10
 55a:	9f 90       	pop	r9
 55c:	8f 90       	pop	r8
 55e:	08 95       	ret

00000560 <__vector_13>:
ISR (UART0_RECEIVE_INTERRUPT)	
/*************************************************************************
Function: UART Receive Complete interrupt
Purpose:  called when the UART has received a character
**************************************************************************/
{
 560:	1f 92       	push	r1
 562:	0f 92       	push	r0
 564:	0f b6       	in	r0, 0x3f	; 63
 566:	0f 92       	push	r0
 568:	11 24       	eor	r1, r1
 56a:	2f 93       	push	r18
 56c:	8f 93       	push	r24
 56e:	9f 93       	push	r25
 570:	ef 93       	push	r30
 572:	ff 93       	push	r31
    unsigned char usr;
    unsigned char lastRxError;
 
 
    /* read UART status register and UART data register */ 
    usr  = UART0_STATUS;
 574:	8b b1       	in	r24, 0x0b	; 11
    data = UART0_DATA;
 576:	2c b1       	in	r18, 0x0c	; 12
    
    /* */
#if defined( AT90_UART )
    lastRxError = (usr & (_BV(FE)|_BV(DOR)) );
#elif defined( ATMEGA_USART )
    lastRxError = (usr & (_BV(FE)|_BV(DOR)) );
 578:	88 71       	andi	r24, 0x18	; 24
#elif defined( AT90USB_USART )
    lastRxError = (usr & (_BV(FE1)|_BV(DOR1)) );
#endif
        
    /* calculate buffer index */ 
    tmphead = ( UART_RxHead + 1) & UART_RX_BUFFER_MASK;
 57a:	e0 91 24 02 	lds	r30, 0x0224	; 0x800224 <UART_RxHead>
 57e:	ef 5f       	subi	r30, 0xFF	; 255
 580:	ef 73       	andi	r30, 0x3F	; 63
    
    if ( tmphead == UART_RxTail ) {
 582:	90 91 23 02 	lds	r25, 0x0223	; 0x800223 <UART_RxTail>
 586:	e9 17       	cp	r30, r25
 588:	39 f0       	breq	.+14     	; 0x598 <__vector_13+0x38>
        /* error: receive buffer overflow */
        lastRxError = UART_BUFFER_OVERFLOW >> 8;
    }else{
        /* store new index */
        UART_RxHead = tmphead;
 58a:	e0 93 24 02 	sts	0x0224, r30	; 0x800224 <UART_RxHead>
        /* store received data in buffer */
        UART_RxBuf[tmphead] = data;
 58e:	f0 e0       	ldi	r31, 0x00	; 0
 590:	e9 5d       	subi	r30, 0xD9	; 217
 592:	fd 4f       	sbci	r31, 0xFD	; 253
 594:	20 83       	st	Z, r18
 596:	01 c0       	rjmp	.+2      	; 0x59a <__vector_13+0x3a>
    /* calculate buffer index */ 
    tmphead = ( UART_RxHead + 1) & UART_RX_BUFFER_MASK;
    
    if ( tmphead == UART_RxTail ) {
        /* error: receive buffer overflow */
        lastRxError = UART_BUFFER_OVERFLOW >> 8;
 598:	82 e0       	ldi	r24, 0x02	; 2
        /* store new index */
        UART_RxHead = tmphead;
        /* store received data in buffer */
        UART_RxBuf[tmphead] = data;
    }
    UART_LastRxError |= lastRxError;   
 59a:	90 91 22 02 	lds	r25, 0x0222	; 0x800222 <UART_LastRxError>
 59e:	89 2b       	or	r24, r25
 5a0:	80 93 22 02 	sts	0x0222, r24	; 0x800222 <UART_LastRxError>
}
 5a4:	ff 91       	pop	r31
 5a6:	ef 91       	pop	r30
 5a8:	9f 91       	pop	r25
 5aa:	8f 91       	pop	r24
 5ac:	2f 91       	pop	r18
 5ae:	0f 90       	pop	r0
 5b0:	0f be       	out	0x3f, r0	; 63
 5b2:	0f 90       	pop	r0
 5b4:	1f 90       	pop	r1
 5b6:	18 95       	reti

000005b8 <__vector_14>:
ISR (UART0_TRANSMIT_INTERRUPT)
/*************************************************************************
Function: UART Data Register Empty interrupt
Purpose:  called when the UART is ready to transmit the next byte
**************************************************************************/
{
 5b8:	1f 92       	push	r1
 5ba:	0f 92       	push	r0
 5bc:	0f b6       	in	r0, 0x3f	; 63
 5be:	0f 92       	push	r0
 5c0:	11 24       	eor	r1, r1
 5c2:	8f 93       	push	r24
 5c4:	9f 93       	push	r25
 5c6:	ef 93       	push	r30
 5c8:	ff 93       	push	r31
    unsigned char tmptail;

    
    if ( UART_TxHead != UART_TxTail) {
 5ca:	90 91 26 02 	lds	r25, 0x0226	; 0x800226 <UART_TxHead>
 5ce:	80 91 25 02 	lds	r24, 0x0225	; 0x800225 <UART_TxTail>
 5d2:	98 17       	cp	r25, r24
 5d4:	61 f0       	breq	.+24     	; 0x5ee <__vector_14+0x36>
        /* calculate and store new buffer index */
        tmptail = (UART_TxTail + 1) & UART_TX_BUFFER_MASK;
 5d6:	e0 91 25 02 	lds	r30, 0x0225	; 0x800225 <UART_TxTail>
 5da:	ef 5f       	subi	r30, 0xFF	; 255
 5dc:	ef 71       	andi	r30, 0x1F	; 31
        UART_TxTail = tmptail;
 5de:	e0 93 25 02 	sts	0x0225, r30	; 0x800225 <UART_TxTail>
        /* get one byte from buffer and write it to UART */
        UART0_DATA = UART_TxBuf[tmptail];  /* start transmission */
 5e2:	f0 e0       	ldi	r31, 0x00	; 0
 5e4:	e9 59       	subi	r30, 0x99	; 153
 5e6:	fd 4f       	sbci	r31, 0xFD	; 253
 5e8:	80 81       	ld	r24, Z
 5ea:	8c b9       	out	0x0c, r24	; 12
 5ec:	01 c0       	rjmp	.+2      	; 0x5f0 <__vector_14+0x38>
    }else{
        /* tx buffer empty, disable UDRE interrupt */
        UART0_CONTROL &= ~_BV(UART0_UDRIE);
 5ee:	55 98       	cbi	0x0a, 5	; 10
    }
}
 5f0:	ff 91       	pop	r31
 5f2:	ef 91       	pop	r30
 5f4:	9f 91       	pop	r25
 5f6:	8f 91       	pop	r24
 5f8:	0f 90       	pop	r0
 5fa:	0f be       	out	0x3f, r0	; 63
 5fc:	0f 90       	pop	r0
 5fe:	1f 90       	pop	r1
 600:	18 95       	reti

00000602 <uart_init>:
Input:    baudrate using macro UART_BAUD_SELECT()
Returns:  none
**************************************************************************/
void uart_init(unsigned int baudrate)
{
    UART_TxHead = 0;
 602:	10 92 26 02 	sts	0x0226, r1	; 0x800226 <UART_TxHead>
    UART_TxTail = 0;
 606:	10 92 25 02 	sts	0x0225, r1	; 0x800225 <UART_TxTail>
    UART_RxHead = 0;
 60a:	10 92 24 02 	sts	0x0224, r1	; 0x800224 <UART_RxHead>
    UART_RxTail = 0;
 60e:	10 92 23 02 	sts	0x0223, r1	; 0x800223 <UART_RxTail>
    /* enable UART receiver and transmmitter and receive complete interrupt */
    UART0_CONTROL = _BV(RXCIE)|_BV(RXEN)|_BV(TXEN);

#elif defined (ATMEGA_USART)
    /* Set baud rate */
    if ( baudrate & 0x8000 )
 612:	99 23       	and	r25, r25
 614:	1c f4       	brge	.+6      	; 0x61c <uart_init+0x1a>
    {
    	 UART0_STATUS = (1<<U2X);  //Enable 2x speed 
 616:	22 e0       	ldi	r18, 0x02	; 2
 618:	2b b9       	out	0x0b, r18	; 11
    	 baudrate &= ~0x8000;
 61a:	9f 77       	andi	r25, 0x7F	; 127
    }
    UBRRH = (unsigned char)(baudrate>>8);
 61c:	90 bd       	out	0x20, r25	; 32
    UBRRL = (unsigned char) baudrate;
 61e:	89 b9       	out	0x09, r24	; 9
   
    /* Enable USART receiver and transmitter and receive complete interrupt */
    UART0_CONTROL = _BV(RXCIE)|(1<<RXEN)|(1<<TXEN);
 620:	88 e9       	ldi	r24, 0x98	; 152
 622:	8a b9       	out	0x0a, r24	; 10
    
    /* Set frame format: asynchronous, 8data, no parity, 1stop bit */
    #ifdef URSEL
    UCSRC = (1<<URSEL)|(3<<UCSZ0);
 624:	86 e8       	ldi	r24, 0x86	; 134
 626:	80 bd       	out	0x20, r24	; 32
 628:	08 95       	ret

0000062a <uart_getc>:
{    
    unsigned char tmptail;
    unsigned char data;


    if ( UART_RxHead == UART_RxTail ) {
 62a:	90 91 24 02 	lds	r25, 0x0224	; 0x800224 <UART_RxHead>
 62e:	80 91 23 02 	lds	r24, 0x0223	; 0x800223 <UART_RxTail>
 632:	98 17       	cp	r25, r24
 634:	81 f0       	breq	.+32     	; 0x656 <uart_getc+0x2c>
        return UART_NO_DATA;   /* no data available */
    }
    
    /* calculate /store buffer index */
    tmptail = (UART_RxTail + 1) & UART_RX_BUFFER_MASK;
 636:	e0 91 23 02 	lds	r30, 0x0223	; 0x800223 <UART_RxTail>
 63a:	ef 5f       	subi	r30, 0xFF	; 255
 63c:	ef 73       	andi	r30, 0x3F	; 63
    UART_RxTail = tmptail; 
 63e:	e0 93 23 02 	sts	0x0223, r30	; 0x800223 <UART_RxTail>
    
    /* get data from receive buffer */
    data = UART_RxBuf[tmptail];
 642:	f0 e0       	ldi	r31, 0x00	; 0
 644:	e9 5d       	subi	r30, 0xD9	; 217
 646:	fd 4f       	sbci	r31, 0xFD	; 253
 648:	80 81       	ld	r24, Z
    
    data = (UART_LastRxError << 8) + data;
 64a:	90 91 22 02 	lds	r25, 0x0222	; 0x800222 <UART_LastRxError>
    UART_LastRxError = 0;
 64e:	10 92 22 02 	sts	0x0222, r1	; 0x800222 <UART_LastRxError>
    return data;
 652:	90 e0       	ldi	r25, 0x00	; 0
 654:	08 95       	ret
    unsigned char tmptail;
    unsigned char data;


    if ( UART_RxHead == UART_RxTail ) {
        return UART_NO_DATA;   /* no data available */
 656:	80 e0       	ldi	r24, 0x00	; 0
 658:	91 e0       	ldi	r25, 0x01	; 1
    
    data = (UART_LastRxError << 8) + data;
    UART_LastRxError = 0;
    return data;

}/* uart_getc */
 65a:	08 95       	ret

0000065c <uart_putc>:
void uart_putc(unsigned char data)
{
    unsigned char tmphead;

    
    tmphead  = (UART_TxHead + 1) & UART_TX_BUFFER_MASK;
 65c:	20 91 26 02 	lds	r18, 0x0226	; 0x800226 <UART_TxHead>
 660:	2f 5f       	subi	r18, 0xFF	; 255
 662:	2f 71       	andi	r18, 0x1F	; 31
    
    while ( tmphead == UART_TxTail ){
 664:	90 91 25 02 	lds	r25, 0x0225	; 0x800225 <UART_TxTail>
 668:	29 17       	cp	r18, r25
 66a:	e1 f3       	breq	.-8      	; 0x664 <uart_putc+0x8>
        ;/* wait for free space in buffer */
    }
    
    UART_TxBuf[tmphead] = data;
 66c:	e2 2f       	mov	r30, r18
 66e:	f0 e0       	ldi	r31, 0x00	; 0
 670:	e9 59       	subi	r30, 0x99	; 153
 672:	fd 4f       	sbci	r31, 0xFD	; 253
 674:	80 83       	st	Z, r24
    UART_TxHead = tmphead;
 676:	20 93 26 02 	sts	0x0226, r18	; 0x800226 <UART_TxHead>

    /* enable UDRE interrupt */
    UART0_CONTROL    |= _BV(UART0_UDRIE);
 67a:	55 9a       	sbi	0x0a, 5	; 10
 67c:	08 95       	ret

0000067e <uart_puts>:
Purpose:  transmit string to UART
Input:    string to be transmitted
Returns:  none          
**************************************************************************/
void uart_puts(const char *s )
{
 67e:	cf 93       	push	r28
 680:	df 93       	push	r29
 682:	ec 01       	movw	r28, r24
    while (*s) 
 684:	88 81       	ld	r24, Y
 686:	88 23       	and	r24, r24
 688:	31 f0       	breq	.+12     	; 0x696 <uart_puts+0x18>
 68a:	21 96       	adiw	r28, 0x01	; 1
      uart_putc(*s++);
 68c:	0e 94 2e 03 	call	0x65c	; 0x65c <uart_putc>
Input:    string to be transmitted
Returns:  none          
**************************************************************************/
void uart_puts(const char *s )
{
    while (*s) 
 690:	89 91       	ld	r24, Y+
 692:	81 11       	cpse	r24, r1
 694:	fb cf       	rjmp	.-10     	; 0x68c <uart_puts+0xe>
      uart_putc(*s++);

}/* uart_puts */
 696:	df 91       	pop	r29
 698:	cf 91       	pop	r28
 69a:	08 95       	ret

0000069c <hardware_init>:
#include "hard_def.h"

void hardware_init(void)
{
	/* gpios as output */
	DDR(GLCD_PORT) 	 			|= ((1<<GLCD_CS1_bp) | (1<<GLCD_RES_bp) | (1<<GLCD_A0_bp) | (1<<GLCD_SCL_bp) | (1<<GLCD_DATA_bp));
 69c:	8a b3       	in	r24, 0x1a	; 26
 69e:	88 6f       	ori	r24, 0xF8	; 248
 6a0:	8a bb       	out	0x1a, r24	; 26
	DDR(GLCD_LED_PORT) 			|= ((1<<GLCD_LED_BLUE_bp) | (1<<GLCD_LED_GREEN_bp) | (1<<GLCD_LED_RED_bp));
 6a2:	84 b3       	in	r24, 0x14	; 20
 6a4:	80 6e       	ori	r24, 0xE0	; 224
 6a6:	84 bb       	out	0x14, r24	; 20
	DDR(LED_HEARTBEAT_PORT) 	|= ( 1<<LED_HEARTBEAT_bp);
 6a8:	bf 9a       	sbi	0x17, 7	; 23
	DDR(VIBRATION_MOTOR_PORT)	|= ( 1<<VIBRATION_MOTOR_bp);
 6aa:	be 9a       	sbi	0x17, 6	; 23
	DDR(SOUND_PORT)				|= ( 1<<SOUND_bp);
 6ac:	a4 9a       	sbi	0x14, 4	; 20
	DDR(RELAIS_PORT1_PORT)		|= ((RELAIS_1_PORT1) | (RELAIS_2_PORT1) | (RELAIS_3_PORT1) | (RELAIS_4_PORT1) | (RELAIS_5_PORT1) | (RELAIS_6_PORT1));
 6ae:	81 b3       	in	r24, 0x11	; 17
 6b0:	8c 6f       	ori	r24, 0xFC	; 252
 6b2:	81 bb       	out	0x11, r24	; 17
	DDR(RELAIS_PORT2_PORT)		|= ((RELAIS_7_PORT2) | (RELAIS_8_PORT2));
 6b4:	84 b3       	in	r24, 0x14	; 20
 6b6:	8c 60       	ori	r24, 0x0C	; 12
 6b8:	84 bb       	out	0x14, r24	; 20

	SOUND_DDR |= (1<<SOUND_bp);
 6ba:	a4 9a       	sbi	0x14, 4	; 20
	
	/* gpios as input */
	DDR(SWITCH_PORT)			&= ~((1<<SWITCH_ENTER_bp) | (1<<SWITCH_UP_bp) | (1<<SWITCH_DOWN_bp) | (1<<SWITCH_RETURN_bp));
 6bc:	87 b3       	in	r24, 0x17	; 23
 6be:	80 7f       	andi	r24, 0xF0	; 240
 6c0:	87 bb       	out	0x17, r24	; 23
	DDR(MEASURE_VCC_PORT) 		&= ~( 1<<MEASURE_VCC_bp);
 6c2:	d0 98       	cbi	0x1a, 0	; 26
	DDR(ENC_SWITCH_PORT)  		&= ~( 1<<ENC_SWITCH_bp);
 6c4:	ac 98       	cbi	0x15, 4	; 21
	DDR(ENC_PORT)		 		&= ~((1<<ENC_A) | (1<<ENC_B));
 6c6:	8a b3       	in	r24, 0x1a	; 26
 6c8:	89 7f       	andi	r24, 0xF9	; 249
 6ca:	8a bb       	out	0x1a, r24	; 26
 6cc:	08 95       	ret

000006ce <cmdRelais>:
	if( val > max )
	{
		return 0;
	}
	return val;
}
 6ce:	df 92       	push	r13
 6d0:	ef 92       	push	r14
 6d2:	ff 92       	push	r15
 6d4:	0f 93       	push	r16
 6d6:	1f 93       	push	r17
 6d8:	cf 93       	push	r28
 6da:	df 93       	push	r29
 6dc:	cd b7       	in	r28, 0x3d	; 61
 6de:	de b7       	in	r29, 0x3e	; 62
 6e0:	2a 97       	sbiw	r28, 0x0a	; 10
 6e2:	0f b6       	in	r0, 0x3f	; 63
 6e4:	f8 94       	cli
 6e6:	de bf       	out	0x3e, r29	; 62
 6e8:	0f be       	out	0x3f, r0	; 63
 6ea:	cd bf       	out	0x3d, r28	; 61
 6ec:	7c 01       	movw	r14, r24
 6ee:	1a 82       	std	Y+2, r1	; 0x02
 6f0:	19 82       	std	Y+1, r1	; 0x01
 6f2:	fe 01       	movw	r30, r28
 6f4:	33 96       	adiw	r30, 0x03	; 3
 6f6:	88 e0       	ldi	r24, 0x08	; 8
 6f8:	df 01       	movw	r26, r30
 6fa:	1d 92       	st	X+, r1
 6fc:	8a 95       	dec	r24
 6fe:	e9 f7       	brne	.-6      	; 0x6fa <cmdRelais+0x2c>
 700:	20 e0       	ldi	r18, 0x00	; 0
 702:	a7 01       	movw	r20, r14
 704:	be 01       	movw	r22, r28
 706:	6f 5f       	subi	r22, 0xFF	; 255
 708:	7f 4f       	sbci	r23, 0xFF	; 255
 70a:	82 e7       	ldi	r24, 0x72	; 114
 70c:	90 e0       	ldi	r25, 0x00	; 0
 70e:	0e 94 25 01 	call	0x24a	; 0x24a <cmdGetPara>
 712:	0e 94 72 05 	call	0xae4	; 0xae4 <atoi>
 716:	8c 01       	movw	r16, r24
 718:	21 e0       	ldi	r18, 0x01	; 1
 71a:	a7 01       	movw	r20, r14
 71c:	be 01       	movw	r22, r28
 71e:	6f 5f       	subi	r22, 0xFF	; 255
 720:	7f 4f       	sbci	r23, 0xFF	; 255
 722:	82 e7       	ldi	r24, 0x72	; 114
 724:	90 e0       	ldi	r25, 0x00	; 0
 726:	0e 94 25 01 	call	0x24a	; 0x24a <cmdGetPara>
 72a:	0e 94 72 05 	call	0xae4	; 0xae4 <atoi>
 72e:	99 27       	eor	r25, r25
 730:	81 30       	cpi	r24, 0x01	; 1
 732:	91 05       	cpc	r25, r1
 734:	19 f1       	breq	.+70     	; 0x77c <cmdRelais+0xae>
 736:	83 30       	cpi	r24, 0x03	; 3
 738:	91 05       	cpc	r25, r1
 73a:	d9 f1       	breq	.+118    	; 0x7b2 <cmdRelais+0xe4>
 73c:	89 2b       	or	r24, r25
 73e:	09 f0       	breq	.+2      	; 0x742 <cmdRelais+0x74>
 740:	4b c0       	rjmp	.+150    	; 0x7d8 <cmdRelais+0x10a>
 742:	b6 e0       	ldi	r27, 0x06	; 6
 744:	b0 17       	cp	r27, r16
 746:	68 f0       	brcs	.+26     	; 0x762 <cmdRelais+0x94>
 748:	22 b3       	in	r18, 0x12	; 18
 74a:	0f 5f       	subi	r16, 0xFF	; 255
 74c:	81 e0       	ldi	r24, 0x01	; 1
 74e:	90 e0       	ldi	r25, 0x00	; 0
 750:	02 c0       	rjmp	.+4      	; 0x756 <cmdRelais+0x88>
 752:	88 0f       	add	r24, r24
 754:	99 1f       	adc	r25, r25
 756:	0a 95       	dec	r16
 758:	e2 f7       	brpl	.-8      	; 0x752 <cmdRelais+0x84>
 75a:	80 95       	com	r24
 75c:	82 23       	and	r24, r18
 75e:	82 bb       	out	0x12, r24	; 18
 760:	3b c0       	rjmp	.+118    	; 0x7d8 <cmdRelais+0x10a>
 762:	25 b3       	in	r18, 0x15	; 21
 764:	05 50       	subi	r16, 0x05	; 5
 766:	81 e0       	ldi	r24, 0x01	; 1
 768:	90 e0       	ldi	r25, 0x00	; 0
 76a:	02 c0       	rjmp	.+4      	; 0x770 <cmdRelais+0xa2>
 76c:	88 0f       	add	r24, r24
 76e:	99 1f       	adc	r25, r25
 770:	0a 95       	dec	r16
 772:	e2 f7       	brpl	.-8      	; 0x76c <cmdRelais+0x9e>
 774:	80 95       	com	r24
 776:	82 23       	and	r24, r18
 778:	85 bb       	out	0x15, r24	; 21
 77a:	2e c0       	rjmp	.+92     	; 0x7d8 <cmdRelais+0x10a>
 77c:	86 e0       	ldi	r24, 0x06	; 6
 77e:	80 17       	cp	r24, r16
 780:	60 f0       	brcs	.+24     	; 0x79a <cmdRelais+0xcc>
 782:	22 b3       	in	r18, 0x12	; 18
 784:	0f 5f       	subi	r16, 0xFF	; 255
 786:	81 e0       	ldi	r24, 0x01	; 1
 788:	90 e0       	ldi	r25, 0x00	; 0
 78a:	02 c0       	rjmp	.+4      	; 0x790 <cmdRelais+0xc2>
 78c:	88 0f       	add	r24, r24
 78e:	99 1f       	adc	r25, r25
 790:	0a 95       	dec	r16
 792:	e2 f7       	brpl	.-8      	; 0x78c <cmdRelais+0xbe>
 794:	82 2b       	or	r24, r18
 796:	82 bb       	out	0x12, r24	; 18
 798:	1f c0       	rjmp	.+62     	; 0x7d8 <cmdRelais+0x10a>
 79a:	25 b3       	in	r18, 0x15	; 21
 79c:	05 50       	subi	r16, 0x05	; 5
 79e:	81 e0       	ldi	r24, 0x01	; 1
 7a0:	90 e0       	ldi	r25, 0x00	; 0
 7a2:	02 c0       	rjmp	.+4      	; 0x7a8 <cmdRelais+0xda>
 7a4:	88 0f       	add	r24, r24
 7a6:	99 1f       	adc	r25, r25
 7a8:	0a 95       	dec	r16
 7aa:	e2 f7       	brpl	.-8      	; 0x7a4 <cmdRelais+0xd6>
 7ac:	82 2b       	or	r24, r18
 7ae:	85 bb       	out	0x15, r24	; 21
 7b0:	13 c0       	rjmp	.+38     	; 0x7d8 <cmdRelais+0x10a>
 7b2:	86 e1       	ldi	r24, 0x16	; 22
 7b4:	91 e0       	ldi	r25, 0x01	; 1
 7b6:	0e 94 3f 03 	call	0x67e	; 0x67e <uart_puts>
 7ba:	80 2f       	mov	r24, r16
 7bc:	88 0f       	add	r24, r24
 7be:	88 0f       	add	r24, r24
 7c0:	82 bb       	out	0x12, r24	; 18
 7c2:	00 7c       	andi	r16, 0xC0	; 192
 7c4:	11 27       	eor	r17, r17
 7c6:	15 95       	asr	r17
 7c8:	07 95       	ror	r16
 7ca:	15 95       	asr	r17
 7cc:	07 95       	ror	r16
 7ce:	15 95       	asr	r17
 7d0:	07 95       	ror	r16
 7d2:	15 95       	asr	r17
 7d4:	07 95       	ror	r16
 7d6:	05 bb       	out	0x15, r16	; 21
 7d8:	8f e8       	ldi	r24, 0x8F	; 143
 7da:	91 e0       	ldi	r25, 0x01	; 1
 7dc:	0e 94 3f 03 	call	0x67e	; 0x67e <uart_puts>
 7e0:	80 e0       	ldi	r24, 0x00	; 0
 7e2:	90 e0       	ldi	r25, 0x00	; 0
 7e4:	2a 96       	adiw	r28, 0x0a	; 10
 7e6:	0f b6       	in	r0, 0x3f	; 63
 7e8:	f8 94       	cli
 7ea:	de bf       	out	0x3e, r29	; 62
 7ec:	0f be       	out	0x3f, r0	; 63
 7ee:	cd bf       	out	0x3d, r28	; 61
 7f0:	df 91       	pop	r29
 7f2:	cf 91       	pop	r28
 7f4:	1f 91       	pop	r17
 7f6:	0f 91       	pop	r16
 7f8:	ff 90       	pop	r15
 7fa:	ef 90       	pop	r14
 7fc:	df 90       	pop	r13
 7fe:	08 95       	ret

00000800 <help>:
 800:	85 e2       	ldi	r24, 0x25	; 37
 802:	91 e0       	ldi	r25, 0x01	; 1
 804:	0e 94 3f 03 	call	0x67e	; 0x67e <uart_puts>
 808:	0e 94 49 00 	call	0x92	; 0x92 <buildVer>
 80c:	0e 94 3f 03 	call	0x67e	; 0x67e <uart_puts>
 810:	8f e8       	ldi	r24, 0x8F	; 143
 812:	91 e0       	ldi	r25, 0x01	; 1
 814:	0e 94 3f 03 	call	0x67e	; 0x67e <uart_puts>
 818:	6c e8       	ldi	r22, 0x8C	; 140
 81a:	72 e0       	ldi	r23, 0x02	; 2
 81c:	82 e7       	ldi	r24, 0x72	; 114
 81e:	90 e0       	ldi	r25, 0x00	; 0
 820:	0e 94 bf 01 	call	0x37e	; 0x37e <cmdHelp>
 824:	0e 94 3f 03 	call	0x67e	; 0x67e <uart_puts>
 828:	80 e0       	ldi	r24, 0x00	; 0
 82a:	90 e0       	ldi	r25, 0x00	; 0
 82c:	08 95       	ret

0000082e <timerInit>:
 82e:	8e b5       	in	r24, 0x2e	; 46
 830:	89 60       	ori	r24, 0x09	; 9
 832:	8e bd       	out	0x2e, r24	; 46
 834:	89 b7       	in	r24, 0x39	; 57
 836:	80 61       	ori	r24, 0x10	; 16
 838:	89 bf       	out	0x39, r24	; 57
 83a:	80 ed       	ldi	r24, 0xD0	; 208
 83c:	97 e0       	ldi	r25, 0x07	; 7
 83e:	9b bd       	out	0x2b, r25	; 43
 840:	8a bd       	out	0x2a, r24	; 42
 842:	08 95       	ret

00000844 <readRingBuff>:

char *readRingBuff( char *stream )
{
 844:	cf 93       	push	r28
 846:	df 93       	push	r29
 848:	ec 01       	movw	r28, r24
	static uint8_t index = 0;
	
	/*
	*	Neustes Byte aus dem Ringpuffer abholen
	*/
	uint16_t c = uart_getc();
 84a:	0e 94 15 03 	call	0x62a	; 0x62a <uart_getc>
	
	/*
	*	Wenn keine neuen Daten vorhanden, direkt wieder zurck!
	*/
	if ( c & UART_NO_DATA)
 84e:	90 fd       	sbrc	r25, 0
 850:	34 c0       	rjmp	.+104    	; 0x8ba <__stack+0x5b>
	}
	
	/*
	*	Ist ein Fehler aufgetreten?
	*/
	if ( c > UART_NO_DATA)
 852:	81 30       	cpi	r24, 0x01	; 1
 854:	21 e0       	ldi	r18, 0x01	; 1
 856:	92 07       	cpc	r25, r18
 858:	28 f0       	brcs	.+10     	; 0x864 <__stack+0x5>
	{
		index = 0; 
 85a:	10 92 8b 02 	sts	0x028B, r1	; 0x80028b <index.2351>
		return NULL;
 85e:	80 e0       	ldi	r24, 0x00	; 0
 860:	90 e0       	ldi	r25, 0x00	; 0
 862:	2d c0       	rjmp	.+90     	; 0x8be <__stack+0x5f>
	}
	
	/*
	*	Status und Error Bits ausmaskieren
	*/
	c &= 0x00FF;
 864:	9c 01       	movw	r18, r24
 866:	33 27       	eor	r19, r19
	
	/*
	*	bertragungsende?
	*/
	if (c == '\n' || c == '\r')
 868:	2a 30       	cpi	r18, 0x0A	; 10
 86a:	31 05       	cpc	r19, r1
 86c:	19 f0       	breq	.+6      	; 0x874 <__stack+0x15>
 86e:	2d 30       	cpi	r18, 0x0D	; 13
 870:	31 05       	cpc	r19, r1
 872:	81 f4       	brne	.+32     	; 0x894 <__stack+0x35>
	{
		*( stream + index ) = '\0';
 874:	80 91 8b 02 	lds	r24, 0x028B	; 0x80028b <index.2351>
 878:	fe 01       	movw	r30, r28
 87a:	e8 0f       	add	r30, r24
 87c:	f1 1d       	adc	r31, r1
 87e:	10 82       	st	Z, r1
		index = 0; 
 880:	10 92 8b 02 	sts	0x028B, r1	; 0x80028b <index.2351>
		
		cmdCntPara( &cmd , stream );
 884:	be 01       	movw	r22, r28
 886:	82 e7       	ldi	r24, 0x72	; 114
 888:	90 e0       	ldi	r25, 0x00	; 0
 88a:	0e 94 c8 00 	call	0x190	; 0x190 <cmdCntPara>
		
		return stream;
 88e:	8c 2f       	mov	r24, r28
 890:	9d 2f       	mov	r25, r29
 892:	15 c0       	rjmp	.+42     	; 0x8be <__stack+0x5f>
	}
	
	/*
	*	Daten in unseren neuen Puffer zwischen speichern
	*/
	if (index >= UART_RX_BUFFER_SIZE)
 894:	20 91 8b 02 	lds	r18, 0x028B	; 0x80028b <index.2351>
 898:	20 34       	cpi	r18, 0x40	; 64
 89a:	28 f0       	brcs	.+10     	; 0x8a6 <__stack+0x47>
	{
		index = 0;
 89c:	10 92 8b 02 	sts	0x028B, r1	; 0x80028b <index.2351>
	else
	{
		*( stream + index++ ) = (uint8_t)c;	
	}
	
	return NULL;
 8a0:	80 e0       	ldi	r24, 0x00	; 0
 8a2:	90 e0       	ldi	r25, 0x00	; 0
 8a4:	0c c0       	rjmp	.+24     	; 0x8be <__stack+0x5f>
	{
		index = 0;
	}
	else
	{
		*( stream + index++ ) = (uint8_t)c;	
 8a6:	91 e0       	ldi	r25, 0x01	; 1
 8a8:	92 0f       	add	r25, r18
 8aa:	90 93 8b 02 	sts	0x028B, r25	; 0x80028b <index.2351>
 8ae:	c2 0f       	add	r28, r18
 8b0:	d1 1d       	adc	r29, r1
 8b2:	88 83       	st	Y, r24
	}
	
	return NULL;
 8b4:	80 e0       	ldi	r24, 0x00	; 0
 8b6:	90 e0       	ldi	r25, 0x00	; 0
 8b8:	02 c0       	rjmp	.+4      	; 0x8be <__stack+0x5f>
	/*
	*	Wenn keine neuen Daten vorhanden, direkt wieder zurck!
	*/
	if ( c & UART_NO_DATA)
	{
		return NULL;
 8ba:	80 e0       	ldi	r24, 0x00	; 0
 8bc:	90 e0       	ldi	r25, 0x00	; 0
	{
		*( stream + index++ ) = (uint8_t)c;	
	}
	
	return NULL;
}
 8be:	df 91       	pop	r29
 8c0:	cf 91       	pop	r28
 8c2:	08 95       	ret

000008c4 <main>:



int main(void)
{
 8c4:	cf 93       	push	r28
 8c6:	df 93       	push	r29
 8c8:	00 d0       	rcall	.+0      	; 0x8ca <main+0x6>
 8ca:	00 d0       	rcall	.+0      	; 0x8cc <main+0x8>
 8cc:	1f 92       	push	r1
 8ce:	cd b7       	in	r28, 0x3d	; 61
 8d0:	de b7       	in	r29, 0x3e	; 62
	hardware_init();
 8d2:	0e 94 4e 03 	call	0x69c	; 0x69c <hardware_init>
	uart_init( UART_BAUD_SELECT( 9600 , F_CPU ) );
 8d6:	87 e6       	ldi	r24, 0x67	; 103
 8d8:	90 e0       	ldi	r25, 0x00	; 0
 8da:	0e 94 01 03 	call	0x602	; 0x602 <uart_init>
	
	timerInit();
 8de:	0e 94 17 04 	call	0x82e	; 0x82e <timerInit>

	sei();
 8e2:	78 94       	sei

	uart_puts( "**HeschDevBoard_7Segment**\r\n");
 8e4:	8c e2       	ldi	r24, 0x2C	; 44
 8e6:	91 e0       	ldi	r25, 0x01	; 1
 8e8:	0e 94 3f 03 	call	0x67e	; 0x67e <uart_puts>
	uart_puts( "Support by J.H - Elec.\r\n");
 8ec:	89 e4       	ldi	r24, 0x49	; 73
 8ee:	91 e0       	ldi	r25, 0x01	; 1
 8f0:	0e 94 3f 03 	call	0x67e	; 0x67e <uart_puts>
	uart_puts( "www.jh-elec.de\r\n" );
 8f4:	82 e6       	ldi	r24, 0x62	; 98
 8f6:	91 e0       	ldi	r25, 0x01	; 1
 8f8:	0e 94 3f 03 	call	0x67e	; 0x67e <uart_puts>
	uart_puts( "Ver.: " );
 8fc:	85 e2       	ldi	r24, 0x25	; 37
 8fe:	91 e0       	ldi	r25, 0x01	; 1
 900:	0e 94 3f 03 	call	0x67e	; 0x67e <uart_puts>
	uart_puts( buildVer() );
 904:	0e 94 49 00 	call	0x92	; 0x92 <buildVer>
 908:	0e 94 3f 03 	call	0x67e	; 0x67e <uart_puts>
	uart_puts( "\r\n\n" );
 90c:	82 e1       	ldi	r24, 0x12	; 18
 90e:	91 e0       	ldi	r25, 0x01	; 1
 910:	0e 94 3f 03 	call	0x67e	; 0x67e <uart_puts>
				if ( funcPtr != NULL )
				{
					funcPtr( stream , NULL );
				}
			
				char crc[5] = "";
 914:	0f 2e       	mov	r0, r31
 916:	f3 e0       	ldi	r31, 0x03	; 3
 918:	bf 2e       	mov	r11, r31
 91a:	f0 2d       	mov	r31, r0
 91c:	7e 01       	movw	r14, r28
 91e:	83 e0       	ldi	r24, 0x03	; 3
 920:	e8 0e       	add	r14, r24
 922:	f1 1c       	adc	r15, r1
	uart_puts( buildVer() );
	uart_puts( "\r\n\n" );
	
	while (1) 
    {	
		char		*stream = readRingBuff( out );
 924:	86 e8       	ldi	r24, 0x86	; 134
 926:	93 e0       	ldi	r25, 0x03	; 3
 928:	0e 94 22 04 	call	0x844	; 0x844 <readRingBuff>
 92c:	8c 01       	movw	r16, r24
		const char	*cmdPtr = NULL;
		if ( stream != NULL )
 92e:	00 97       	sbiw	r24, 0x00	; 0
 930:	c9 f3       	breq	.-14     	; 0x924 <main+0x60>
		{
			cmdPtr = cmdGetName( &cmd , stream );
 932:	bc 01       	movw	r22, r24
 934:	82 e7       	ldi	r24, 0x72	; 114
 936:	90 e0       	ldi	r25, 0x00	; 0
 938:	0e 94 f9 00 	call	0x1f2	; 0x1f2 <cmdGetName>
 93c:	6c 01       	movw	r12, r24
			if ( cmdPtr != NULL  )
 93e:	89 2b       	or	r24, r25
 940:	09 f4       	brne	.+2      	; 0x944 <main+0x80>
 942:	61 c0       	rjmp	.+194    	; 0xa06 <main+0x142>
			{
				uart_puts( "****************************\r\n" );
 944:	83 e7       	ldi	r24, 0x73	; 115
 946:	91 e0       	ldi	r25, 0x01	; 1
 948:	0e 94 3f 03 	call	0x67e	; 0x67e <uart_puts>

				uart_puts( cmdPtr );
 94c:	c6 01       	movw	r24, r12
 94e:	0e 94 3f 03 	call	0x67e	; 0x67e <uart_puts>
				uart_puts( "\r\n" );	
 952:	8f e8       	ldi	r24, 0x8F	; 143
 954:	91 e0       	ldi	r25, 0x01	; 1
 956:	0e 94 3f 03 	call	0x67e	; 0x67e <uart_puts>
			
				if ( cmd.raw->paraNumb != 0 )
 95a:	e0 91 76 00 	lds	r30, 0x0076	; 0x800076 <cmd+0x4>
 95e:	f0 91 77 00 	lds	r31, 0x0077	; 0x800077 <cmd+0x5>
 962:	82 81       	ldd	r24, Z+2	; 0x02
 964:	88 23       	and	r24, r24
 966:	a9 f0       	breq	.+42     	; 0x992 <main+0xce>
				{
 					uart_puts( "Anzahl Parameter.: " );
 968:	82 e9       	ldi	r24, 0x92	; 146
 96a:	91 e0       	ldi	r25, 0x01	; 1
 96c:	0e 94 3f 03 	call	0x67e	; 0x67e <uart_puts>
 					uart_puts( itoa( cmd.raw->paraNumb , NULL , 10 ) );
 970:	e0 91 76 00 	lds	r30, 0x0076	; 0x800076 <cmd+0x4>
 974:	f0 91 77 00 	lds	r31, 0x0077	; 0x800077 <cmd+0x5>
    } else if (__radix < 2 || __radix > 36) {
	*__s = 0;
	return __s;
    } else {
	extern char *__itoa_ncheck (int, char *, unsigned char);
	return __itoa_ncheck (__val, __s, __radix);
 978:	82 81       	ldd	r24, Z+2	; 0x02
 97a:	4a e0       	ldi	r20, 0x0A	; 10
 97c:	60 e0       	ldi	r22, 0x00	; 0
 97e:	70 e0       	ldi	r23, 0x00	; 0
 980:	90 e0       	ldi	r25, 0x00	; 0
 982:	0e 94 c7 05 	call	0xb8e	; 0xb8e <__itoa_ncheck>
 986:	0e 94 3f 03 	call	0x67e	; 0x67e <uart_puts>
 					uart_puts( "\r\n" );			
 98a:	8f e8       	ldi	r24, 0x8F	; 143
 98c:	91 e0       	ldi	r25, 0x01	; 1
 98e:	0e 94 3f 03 	call	0x67e	; 0x67e <uart_puts>
				}
		
				void (*funcPtr)(void*,void*) = cmdGetFunc( &cmd , stream );
 992:	b8 01       	movw	r22, r16
 994:	82 e7       	ldi	r24, 0x72	; 114
 996:	90 e0       	ldi	r25, 0x00	; 0
 998:	0e 94 0f 01 	call	0x21e	; 0x21e <cmdGetFunc>
 99c:	fc 01       	movw	r30, r24
				if ( funcPtr != NULL )
 99e:	89 2b       	or	r24, r25
 9a0:	21 f0       	breq	.+8      	; 0x9aa <main+0xe6>
				{
					funcPtr( stream , NULL );
 9a2:	60 e0       	ldi	r22, 0x00	; 0
 9a4:	70 e0       	ldi	r23, 0x00	; 0
 9a6:	c8 01       	movw	r24, r16
 9a8:	09 95       	icall
				}
			
				char crc[5] = "";
 9aa:	1a 82       	std	Y+2, r1	; 0x02
 9ac:	19 82       	std	Y+1, r1	; 0x01
 9ae:	f7 01       	movw	r30, r14
 9b0:	8b 2d       	mov	r24, r11
 9b2:	11 92       	st	Z+, r1
 9b4:	8a 95       	dec	r24
 9b6:	e9 f7       	brne	.-6      	; 0x9b2 <main+0xee>
				char *crcPtr = cmdGetCRC( crc , stream );
 9b8:	b8 01       	movw	r22, r16
 9ba:	ce 01       	movw	r24, r28
 9bc:	01 96       	adiw	r24, 0x01	; 1
 9be:	0e 94 a0 01 	call	0x340	; 0x340 <cmdGetCRC>
 9c2:	8c 01       	movw	r16, r24
				if ( crcPtr != NULL )
 9c4:	89 2b       	or	r24, r25
 9c6:	59 f0       	breq	.+22     	; 0x9de <main+0x11a>
				{
					uart_puts( "CRC.: " );
 9c8:	86 ea       	ldi	r24, 0xA6	; 166
 9ca:	91 e0       	ldi	r25, 0x01	; 1
 9cc:	0e 94 3f 03 	call	0x67e	; 0x67e <uart_puts>
					uart_puts( crcPtr );
 9d0:	c8 01       	movw	r24, r16
 9d2:	0e 94 3f 03 	call	0x67e	; 0x67e <uart_puts>
					uart_puts( "\r\n" );
 9d6:	8f e8       	ldi	r24, 0x8F	; 143
 9d8:	91 e0       	ldi	r25, 0x01	; 1
 9da:	0e 94 3f 03 	call	0x67e	; 0x67e <uart_puts>
				}
			
				memset( ( char * ) out , 0 , strlen( out ) );
 9de:	e6 e8       	ldi	r30, 0x86	; 134
 9e0:	f3 e0       	ldi	r31, 0x03	; 3
 9e2:	01 90       	ld	r0, Z+
 9e4:	00 20       	and	r0, r0
 9e6:	e9 f7       	brne	.-6      	; 0x9e2 <main+0x11e>
 9e8:	31 97       	sbiw	r30, 0x01	; 1
 9ea:	af 01       	movw	r20, r30
 9ec:	46 58       	subi	r20, 0x86	; 134
 9ee:	53 40       	sbci	r21, 0x03	; 3
 9f0:	60 e0       	ldi	r22, 0x00	; 0
 9f2:	70 e0       	ldi	r23, 0x00	; 0
 9f4:	86 e8       	ldi	r24, 0x86	; 134
 9f6:	93 e0       	ldi	r25, 0x03	; 3
 9f8:	0e 94 90 05 	call	0xb20	; 0xb20 <memset>
			
				uart_puts( "****************************\r\n" );				
 9fc:	83 e7       	ldi	r24, 0x73	; 115
 9fe:	91 e0       	ldi	r25, 0x01	; 1
 a00:	0e 94 3f 03 	call	0x67e	; 0x67e <uart_puts>
 a04:	8f cf       	rjmp	.-226    	; 0x924 <main+0x60>
			}
			else
			{
				uart_puts( "no command\r\n" );
 a06:	8d ea       	ldi	r24, 0xAD	; 173
 a08:	91 e0       	ldi	r25, 0x01	; 1
 a0a:	0e 94 3f 03 	call	0x67e	; 0x67e <uart_puts>
 a0e:	8a cf       	rjmp	.-236    	; 0x924 <main+0x60>

00000a10 <__vector_7>:
    }
}

/* live the CPU?*/
ISR(TIMER1_COMPA_vect)
{
 a10:	1f 92       	push	r1
 a12:	0f 92       	push	r0
 a14:	0f b6       	in	r0, 0x3f	; 63
 a16:	0f 92       	push	r0
 a18:	11 24       	eor	r1, r1
 a1a:	2f 93       	push	r18
 a1c:	4f 93       	push	r20
 a1e:	5f 93       	push	r21
 a20:	6f 93       	push	r22
 a22:	7f 93       	push	r23
 a24:	8f 93       	push	r24
 a26:	9f 93       	push	r25
 a28:	af 93       	push	r26
 a2a:	bf 93       	push	r27
	static uint32_t stateLED = 0;
	
	/*
	*	Status Anzeige
	*/
	stateLED = checkMaxValue( ++stateLED , 10e3 );
 a2c:	80 91 87 02 	lds	r24, 0x0287	; 0x800287 <stateLED.2369>
 a30:	90 91 88 02 	lds	r25, 0x0288	; 0x800288 <stateLED.2369+0x1>
 a34:	a0 91 89 02 	lds	r26, 0x0289	; 0x800289 <stateLED.2369+0x2>
 a38:	b0 91 8a 02 	lds	r27, 0x028A	; 0x80028a <stateLED.2369+0x3>
 a3c:	01 96       	adiw	r24, 0x01	; 1
 a3e:	a1 1d       	adc	r26, r1
 a40:	b1 1d       	adc	r27, r1
	OCR1A   = ( (uint16_t)( F_CPU / 1 / 8000 ) );	
}

uint16_t checkMaxValue( uint16_t val , uint16_t max )
{
	if( val > max )
 a42:	81 31       	cpi	r24, 0x11	; 17
 a44:	27 e2       	ldi	r18, 0x27	; 39
 a46:	92 07       	cpc	r25, r18
 a48:	b0 f5       	brcc	.+108    	; 0xab6 <__vector_7+0xa6>
 a4a:	aa 27       	eor	r26, r26
 a4c:	bb 27       	eor	r27, r27
	static uint32_t stateLED = 0;
	
	/*
	*	Status Anzeige
	*/
	stateLED = checkMaxValue( ++stateLED , 10e3 );
 a4e:	80 93 87 02 	sts	0x0287, r24	; 0x800287 <stateLED.2369>
 a52:	90 93 88 02 	sts	0x0288, r25	; 0x800288 <stateLED.2369+0x1>
 a56:	a0 93 89 02 	sts	0x0289, r26	; 0x800289 <stateLED.2369+0x2>
 a5a:	b0 93 8a 02 	sts	0x028A, r27	; 0x80028a <stateLED.2369+0x3>
	
	if ( stateLED <= 200 )
 a5e:	89 3c       	cpi	r24, 0xC9	; 201
 a60:	91 05       	cpc	r25, r1
 a62:	a1 05       	cpc	r26, r1
 a64:	b1 05       	cpc	r27, r1
 a66:	10 f4       	brcc	.+4      	; 0xa6c <__vector_7+0x5c>
	{
		BC(LED_HEARTBEAT_PORT,LED_HEARTBEAT_bp);
 a68:	c7 98       	cbi	0x18, 7	; 24
 a6a:	2e c0       	rjmp	.+92     	; 0xac8 <__vector_7+0xb8>
	}
	else if ( ( stateLED >= 400 ) && ( stateLED <= 600 ) )
 a6c:	ac 01       	movw	r20, r24
 a6e:	bd 01       	movw	r22, r26
 a70:	40 59       	subi	r20, 0x90	; 144
 a72:	51 40       	sbci	r21, 0x01	; 1
 a74:	61 09       	sbc	r22, r1
 a76:	71 09       	sbc	r23, r1
 a78:	49 3c       	cpi	r20, 0xC9	; 201
 a7a:	51 05       	cpc	r21, r1
 a7c:	61 05       	cpc	r22, r1
 a7e:	71 05       	cpc	r23, r1
 a80:	10 f4       	brcc	.+4      	; 0xa86 <__vector_7+0x76>
	{
		BS(LED_HEARTBEAT_PORT,LED_HEARTBEAT_bp);
 a82:	c7 9a       	sbi	0x18, 7	; 24
 a84:	21 c0       	rjmp	.+66     	; 0xac8 <__vector_7+0xb8>
	}
	else if ( ( stateLED >= 1000 ) && ( stateLED <= 1400 ) )
 a86:	ac 01       	movw	r20, r24
 a88:	bd 01       	movw	r22, r26
 a8a:	48 5e       	subi	r20, 0xE8	; 232
 a8c:	53 40       	sbci	r21, 0x03	; 3
 a8e:	61 09       	sbc	r22, r1
 a90:	71 09       	sbc	r23, r1
 a92:	41 39       	cpi	r20, 0x91	; 145
 a94:	51 40       	sbci	r21, 0x01	; 1
 a96:	61 05       	cpc	r22, r1
 a98:	71 05       	cpc	r23, r1
 a9a:	10 f4       	brcc	.+4      	; 0xaa0 <__vector_7+0x90>
	{
		BC(LED_HEARTBEAT_PORT,LED_HEARTBEAT_bp);
 a9c:	c7 98       	cbi	0x18, 7	; 24
 a9e:	14 c0       	rjmp	.+40     	; 0xac8 <__vector_7+0xb8>
	}
	else if ( ( stateLED >= 1600 ) && ( stateLED <= 1800 ) )
 aa0:	80 54       	subi	r24, 0x40	; 64
 aa2:	96 40       	sbci	r25, 0x06	; 6
 aa4:	a1 09       	sbc	r26, r1
 aa6:	b1 09       	sbc	r27, r1
 aa8:	89 3c       	cpi	r24, 0xC9	; 201
 aaa:	91 05       	cpc	r25, r1
 aac:	a1 05       	cpc	r26, r1
 aae:	b1 05       	cpc	r27, r1
 ab0:	58 f4       	brcc	.+22     	; 0xac8 <__vector_7+0xb8>
	{
		BS(LED_HEARTBEAT_PORT,LED_HEARTBEAT_bp);
 ab2:	c7 9a       	sbi	0x18, 7	; 24
	}
 ab4:	09 c0       	rjmp	.+18     	; 0xac8 <__vector_7+0xb8>
	static uint32_t stateLED = 0;
	
	/*
	*	Status Anzeige
	*/
	stateLED = checkMaxValue( ++stateLED , 10e3 );
 ab6:	10 92 87 02 	sts	0x0287, r1	; 0x800287 <stateLED.2369>
 aba:	10 92 88 02 	sts	0x0288, r1	; 0x800288 <stateLED.2369+0x1>
 abe:	10 92 89 02 	sts	0x0289, r1	; 0x800289 <stateLED.2369+0x2>
 ac2:	10 92 8a 02 	sts	0x028A, r1	; 0x80028a <stateLED.2369+0x3>
 ac6:	d0 cf       	rjmp	.-96     	; 0xa68 <__vector_7+0x58>
	}
	else if ( ( stateLED >= 1600 ) && ( stateLED <= 1800 ) )
	{
		BS(LED_HEARTBEAT_PORT,LED_HEARTBEAT_bp);
	}
 ac8:	bf 91       	pop	r27
 aca:	af 91       	pop	r26
 acc:	9f 91       	pop	r25
 ace:	8f 91       	pop	r24
 ad0:	7f 91       	pop	r23
 ad2:	6f 91       	pop	r22
 ad4:	5f 91       	pop	r21
 ad6:	4f 91       	pop	r20
 ad8:	2f 91       	pop	r18
 ada:	0f 90       	pop	r0
 adc:	0f be       	out	0x3f, r0	; 63
 ade:	0f 90       	pop	r0
 ae0:	1f 90       	pop	r1
 ae2:	18 95       	reti

00000ae4 <atoi>:
 ae4:	fc 01       	movw	r30, r24
 ae6:	88 27       	eor	r24, r24
 ae8:	99 27       	eor	r25, r25
 aea:	e8 94       	clt
 aec:	21 91       	ld	r18, Z+
 aee:	20 32       	cpi	r18, 0x20	; 32
 af0:	e9 f3       	breq	.-6      	; 0xaec <atoi+0x8>
 af2:	29 30       	cpi	r18, 0x09	; 9
 af4:	10 f0       	brcs	.+4      	; 0xafa <atoi+0x16>
 af6:	2e 30       	cpi	r18, 0x0E	; 14
 af8:	c8 f3       	brcs	.-14     	; 0xaec <atoi+0x8>
 afa:	2b 32       	cpi	r18, 0x2B	; 43
 afc:	41 f0       	breq	.+16     	; 0xb0e <atoi+0x2a>
 afe:	2d 32       	cpi	r18, 0x2D	; 45
 b00:	39 f4       	brne	.+14     	; 0xb10 <atoi+0x2c>
 b02:	68 94       	set
 b04:	04 c0       	rjmp	.+8      	; 0xb0e <atoi+0x2a>
 b06:	0e 94 d2 05 	call	0xba4	; 0xba4 <__mulhi_const_10>
 b0a:	82 0f       	add	r24, r18
 b0c:	91 1d       	adc	r25, r1
 b0e:	21 91       	ld	r18, Z+
 b10:	20 53       	subi	r18, 0x30	; 48
 b12:	2a 30       	cpi	r18, 0x0A	; 10
 b14:	c0 f3       	brcs	.-16     	; 0xb06 <atoi+0x22>
 b16:	1e f4       	brtc	.+6      	; 0xb1e <atoi+0x3a>
 b18:	90 95       	com	r25
 b1a:	81 95       	neg	r24
 b1c:	9f 4f       	sbci	r25, 0xFF	; 255
 b1e:	08 95       	ret

00000b20 <memset>:
 b20:	dc 01       	movw	r26, r24
 b22:	01 c0       	rjmp	.+2      	; 0xb26 <memset+0x6>
 b24:	6d 93       	st	X+, r22
 b26:	41 50       	subi	r20, 0x01	; 1
 b28:	50 40       	sbci	r21, 0x00	; 0
 b2a:	e0 f7       	brcc	.-8      	; 0xb24 <memset+0x4>
 b2c:	08 95       	ret

00000b2e <strcat>:
 b2e:	fb 01       	movw	r30, r22
 b30:	dc 01       	movw	r26, r24
 b32:	0d 90       	ld	r0, X+
 b34:	00 20       	and	r0, r0
 b36:	e9 f7       	brne	.-6      	; 0xb32 <strcat+0x4>
 b38:	11 97       	sbiw	r26, 0x01	; 1
 b3a:	01 90       	ld	r0, Z+
 b3c:	0d 92       	st	X+, r0
 b3e:	00 20       	and	r0, r0
 b40:	e1 f7       	brne	.-8      	; 0xb3a <strcat+0xc>
 b42:	08 95       	ret

00000b44 <strchr>:
 b44:	fc 01       	movw	r30, r24
 b46:	81 91       	ld	r24, Z+
 b48:	86 17       	cp	r24, r22
 b4a:	21 f0       	breq	.+8      	; 0xb54 <strchr+0x10>
 b4c:	88 23       	and	r24, r24
 b4e:	d9 f7       	brne	.-10     	; 0xb46 <strchr+0x2>
 b50:	99 27       	eor	r25, r25
 b52:	08 95       	ret
 b54:	31 97       	sbiw	r30, 0x01	; 1
 b56:	cf 01       	movw	r24, r30
 b58:	08 95       	ret

00000b5a <strstr>:
 b5a:	fb 01       	movw	r30, r22
 b5c:	51 91       	ld	r21, Z+
 b5e:	55 23       	and	r21, r21
 b60:	a9 f0       	breq	.+42     	; 0xb8c <strstr+0x32>
 b62:	bf 01       	movw	r22, r30
 b64:	dc 01       	movw	r26, r24
 b66:	4d 91       	ld	r20, X+
 b68:	45 17       	cp	r20, r21
 b6a:	41 11       	cpse	r20, r1
 b6c:	e1 f7       	brne	.-8      	; 0xb66 <strstr+0xc>
 b6e:	59 f4       	brne	.+22     	; 0xb86 <strstr+0x2c>
 b70:	cd 01       	movw	r24, r26
 b72:	01 90       	ld	r0, Z+
 b74:	00 20       	and	r0, r0
 b76:	49 f0       	breq	.+18     	; 0xb8a <strstr+0x30>
 b78:	4d 91       	ld	r20, X+
 b7a:	40 15       	cp	r20, r0
 b7c:	41 11       	cpse	r20, r1
 b7e:	c9 f3       	breq	.-14     	; 0xb72 <strstr+0x18>
 b80:	fb 01       	movw	r30, r22
 b82:	41 11       	cpse	r20, r1
 b84:	ef cf       	rjmp	.-34     	; 0xb64 <strstr+0xa>
 b86:	81 e0       	ldi	r24, 0x01	; 1
 b88:	90 e0       	ldi	r25, 0x00	; 0
 b8a:	01 97       	sbiw	r24, 0x01	; 1
 b8c:	08 95       	ret

00000b8e <__itoa_ncheck>:
 b8e:	bb 27       	eor	r27, r27
 b90:	4a 30       	cpi	r20, 0x0A	; 10
 b92:	31 f4       	brne	.+12     	; 0xba0 <__itoa_ncheck+0x12>
 b94:	99 23       	and	r25, r25
 b96:	22 f4       	brpl	.+8      	; 0xba0 <__itoa_ncheck+0x12>
 b98:	bd e2       	ldi	r27, 0x2D	; 45
 b9a:	90 95       	com	r25
 b9c:	81 95       	neg	r24
 b9e:	9f 4f       	sbci	r25, 0xFF	; 255
 ba0:	0c 94 db 05 	jmp	0xbb6	; 0xbb6 <__utoa_common>

00000ba4 <__mulhi_const_10>:
 ba4:	7a e0       	ldi	r23, 0x0A	; 10
 ba6:	97 9f       	mul	r25, r23
 ba8:	90 2d       	mov	r25, r0
 baa:	87 9f       	mul	r24, r23
 bac:	80 2d       	mov	r24, r0
 bae:	91 0d       	add	r25, r1
 bb0:	11 24       	eor	r1, r1
 bb2:	08 95       	ret

00000bb4 <__utoa_ncheck>:
 bb4:	bb 27       	eor	r27, r27

00000bb6 <__utoa_common>:
 bb6:	fb 01       	movw	r30, r22
 bb8:	55 27       	eor	r21, r21
 bba:	aa 27       	eor	r26, r26
 bbc:	88 0f       	add	r24, r24
 bbe:	99 1f       	adc	r25, r25
 bc0:	aa 1f       	adc	r26, r26
 bc2:	a4 17       	cp	r26, r20
 bc4:	10 f0       	brcs	.+4      	; 0xbca <__utoa_common+0x14>
 bc6:	a4 1b       	sub	r26, r20
 bc8:	83 95       	inc	r24
 bca:	50 51       	subi	r21, 0x10	; 16
 bcc:	b9 f7       	brne	.-18     	; 0xbbc <__utoa_common+0x6>
 bce:	a0 5d       	subi	r26, 0xD0	; 208
 bd0:	aa 33       	cpi	r26, 0x3A	; 58
 bd2:	08 f0       	brcs	.+2      	; 0xbd6 <__utoa_common+0x20>
 bd4:	a9 5d       	subi	r26, 0xD9	; 217
 bd6:	a1 93       	st	Z+, r26
 bd8:	00 97       	sbiw	r24, 0x00	; 0
 bda:	79 f7       	brne	.-34     	; 0xbba <__utoa_common+0x4>
 bdc:	b1 11       	cpse	r27, r1
 bde:	b1 93       	st	Z+, r27
 be0:	11 92       	st	Z+, r1
 be2:	cb 01       	movw	r24, r22
 be4:	0c 94 f4 05 	jmp	0xbe8	; 0xbe8 <strrev>

00000be8 <strrev>:
 be8:	dc 01       	movw	r26, r24
 bea:	fc 01       	movw	r30, r24
 bec:	67 2f       	mov	r22, r23
 bee:	71 91       	ld	r23, Z+
 bf0:	77 23       	and	r23, r23
 bf2:	e1 f7       	brne	.-8      	; 0xbec <strrev+0x4>
 bf4:	32 97       	sbiw	r30, 0x02	; 2
 bf6:	04 c0       	rjmp	.+8      	; 0xc00 <strrev+0x18>
 bf8:	7c 91       	ld	r23, X
 bfa:	6d 93       	st	X+, r22
 bfc:	70 83       	st	Z, r23
 bfe:	62 91       	ld	r22, -Z
 c00:	ae 17       	cp	r26, r30
 c02:	bf 07       	cpc	r27, r31
 c04:	c8 f3       	brcs	.-14     	; 0xbf8 <strrev+0x10>
 c06:	08 95       	ret

00000c08 <_exit>:
 c08:	f8 94       	cli

00000c0a <__stop_program>:
 c0a:	ff cf       	rjmp	.-2      	; 0xc0a <__stop_program>
