
RelaisSwitchBox.elf:     file format elf32-avr

Sections:
Idx Name          Size      VMA       LMA       File off  Algn
  0 .text         000008c0  00000000  00000000  00000094  2**1
                  CONTENTS, ALLOC, LOAD, READONLY, CODE
  1 .data         00000036  00800060  000008c0  00000954  2**0
                  CONTENTS, ALLOC, LOAD, DATA
  2 .bss          00000485  00800096  00800096  0000098a  2**0
                  ALLOC
  3 .comment      00000030  00000000  00000000  0000098a  2**0
                  CONTENTS, READONLY
  4 .note.gnu.avr.deviceinfo 0000003c  00000000  00000000  000009bc  2**2
                  CONTENTS, READONLY
  5 .debug_aranges 00000160  00000000  00000000  000009f8  2**0
                  CONTENTS, READONLY, DEBUGGING
  6 .debug_info   0000188c  00000000  00000000  00000b58  2**0
                  CONTENTS, READONLY, DEBUGGING
  7 .debug_abbrev 00000b75  00000000  00000000  000023e4  2**0
                  CONTENTS, READONLY, DEBUGGING
  8 .debug_line   00000cfd  00000000  00000000  00002f59  2**0
                  CONTENTS, READONLY, DEBUGGING
  9 .debug_frame  00000388  00000000  00000000  00003c58  2**2
                  CONTENTS, READONLY, DEBUGGING
 10 .debug_str    000008a3  00000000  00000000  00003fe0  2**0
                  CONTENTS, READONLY, DEBUGGING
 11 .debug_loc    00001096  00000000  00000000  00004883  2**0
                  CONTENTS, READONLY, DEBUGGING
 12 .debug_ranges 00000140  00000000  00000000  00005919  2**0
                  CONTENTS, READONLY, DEBUGGING

Disassembly of section .text:

00000000 <__vectors>:
   0:	0c 94 2a 00 	jmp	0x54	; 0x54 <__ctors_end>
   4:	0c 94 47 00 	jmp	0x8e	; 0x8e <__bad_interrupt>
   8:	0c 94 47 00 	jmp	0x8e	; 0x8e <__bad_interrupt>
   c:	0c 94 47 00 	jmp	0x8e	; 0x8e <__bad_interrupt>
  10:	0c 94 47 00 	jmp	0x8e	; 0x8e <__bad_interrupt>
  14:	0c 94 47 00 	jmp	0x8e	; 0x8e <__bad_interrupt>
  18:	0c 94 47 00 	jmp	0x8e	; 0x8e <__bad_interrupt>
  1c:	0c 94 f4 03 	jmp	0x7e8	; 0x7e8 <__vector_7>
  20:	0c 94 47 00 	jmp	0x8e	; 0x8e <__bad_interrupt>
  24:	0c 94 47 00 	jmp	0x8e	; 0x8e <__bad_interrupt>
  28:	0c 94 47 00 	jmp	0x8e	; 0x8e <__bad_interrupt>
  2c:	0c 94 47 00 	jmp	0x8e	; 0x8e <__bad_interrupt>
  30:	0c 94 47 00 	jmp	0x8e	; 0x8e <__bad_interrupt>
  34:	0c 94 82 01 	jmp	0x304	; 0x304 <__vector_13>
  38:	0c 94 ae 01 	jmp	0x35c	; 0x35c <__vector_14>
  3c:	0c 94 47 00 	jmp	0x8e	; 0x8e <__bad_interrupt>
  40:	0c 94 47 00 	jmp	0x8e	; 0x8e <__bad_interrupt>
  44:	0c 94 47 00 	jmp	0x8e	; 0x8e <__bad_interrupt>
  48:	0c 94 47 00 	jmp	0x8e	; 0x8e <__bad_interrupt>
  4c:	0c 94 47 00 	jmp	0x8e	; 0x8e <__bad_interrupt>
  50:	0c 94 47 00 	jmp	0x8e	; 0x8e <__bad_interrupt>

00000054 <__ctors_end>:
  54:	11 24       	eor	r1, r1
  56:	1f be       	out	0x3f, r1	; 63
  58:	cf e5       	ldi	r28, 0x5F	; 95
  5a:	d8 e0       	ldi	r29, 0x08	; 8
  5c:	de bf       	out	0x3e, r29	; 62
  5e:	cd bf       	out	0x3d, r28	; 61

00000060 <__do_copy_data>:
  60:	10 e0       	ldi	r17, 0x00	; 0
  62:	a0 e6       	ldi	r26, 0x60	; 96
  64:	b0 e0       	ldi	r27, 0x00	; 0
  66:	e0 ec       	ldi	r30, 0xC0	; 192
  68:	f8 e0       	ldi	r31, 0x08	; 8
  6a:	02 c0       	rjmp	.+4      	; 0x70 <__do_copy_data+0x10>
  6c:	05 90       	lpm	r0, Z+
  6e:	0d 92       	st	X+, r0
  70:	a6 39       	cpi	r26, 0x96	; 150
  72:	b1 07       	cpc	r27, r17
  74:	d9 f7       	brne	.-10     	; 0x6c <__do_copy_data+0xc>

00000076 <__do_clear_bss>:
  76:	25 e0       	ldi	r18, 0x05	; 5
  78:	a6 e9       	ldi	r26, 0x96	; 150
  7a:	b0 e0       	ldi	r27, 0x00	; 0
  7c:	01 c0       	rjmp	.+2      	; 0x80 <.do_clear_bss_start>

0000007e <.do_clear_bss_loop>:
  7e:	1d 92       	st	X+, r1

00000080 <.do_clear_bss_start>:
  80:	ab 31       	cpi	r26, 0x1B	; 27
  82:	b2 07       	cpc	r27, r18
  84:	e1 f7       	brne	.-8      	; 0x7e <.do_clear_bss_loop>
  86:	0e 94 8b 03 	call	0x716	; 0x716 <main>
  8a:	0c 94 5e 04 	jmp	0x8bc	; 0x8bc <_exit>

0000008e <__bad_interrupt>:
  8e:	0c 94 00 00 	jmp	0	; 0x0 <__vectors>

00000092 <buildVer>:
  92:	e0 e6       	ldi	r30, 0x60	; 96
  94:	f0 e0       	ldi	r31, 0x00	; 0
  96:	81 e3       	ldi	r24, 0x31	; 49
  98:	80 83       	st	Z, r24
  9a:	2e e2       	ldi	r18, 0x2E	; 46
  9c:	21 83       	std	Z+1, r18	; 0x01
  9e:	90 e2       	ldi	r25, 0x20	; 32
  a0:	92 83       	std	Z+2, r25	; 0x02
  a2:	30 e3       	ldi	r19, 0x30	; 48
  a4:	33 83       	std	Z+3, r19	; 0x03
  a6:	24 83       	std	Z+4, r18	; 0x04
  a8:	95 83       	std	Z+5, r25	; 0x05
  aa:	36 83       	std	Z+6, r19	; 0x06
  ac:	37 e3       	ldi	r19, 0x37	; 55
  ae:	37 83       	std	Z+7, r19	; 0x07
  b0:	33 e3       	ldi	r19, 0x33	; 51
  b2:	30 87       	std	Z+8, r19	; 0x08
  b4:	31 87       	std	Z+9, r19	; 0x09
  b6:	22 87       	std	Z+10, r18	; 0x0a
  b8:	93 87       	std	Z+11, r25	; 0x0b
  ba:	84 87       	std	Z+12, r24	; 0x0c
  bc:	98 e3       	ldi	r25, 0x38	; 56
  be:	95 87       	std	Z+13, r25	; 0x0d
  c0:	86 87       	std	Z+14, r24	; 0x0e
  c2:	87 87       	std	Z+15, r24	; 0x0f
  c4:	10 8a       	std	Z+16, r1	; 0x10
  c6:	cf 01       	movw	r24, r30
  c8:	08 95       	ret

000000ca <cmdInit>:
		crc = cmdCrc8CCITTUpdate( crc , ( uint8_t * ) str );
		str++;
	}
	
	return crc;
}
  ca:	fc 01       	movw	r30, r24
  cc:	10 82       	st	Z, r1
  ce:	11 82       	std	Z+1, r1	; 0x01
  d0:	12 82       	std	Z+2, r1	; 0x02
  d2:	13 82       	std	Z+3, r1	; 0x03
  d4:	14 82       	std	Z+4, r1	; 0x04
  d6:	15 82       	std	Z+5, r1	; 0x05
  d8:	16 82       	std	Z+6, r1	; 0x06
  da:	10 86       	std	Z+8, r1	; 0x08
  dc:	17 82       	std	Z+7, r1	; 0x07
  de:	08 95       	ret

000000e0 <cmdGetStartIndex>:
  e0:	fc 01       	movw	r30, r24
  e2:	90 e0       	ldi	r25, 0x00	; 0
  e4:	81 91       	ld	r24, Z+
  e6:	8d 32       	cpi	r24, 0x2D	; 45
  e8:	29 f4       	brne	.+10     	; 0xf4 <cmdGetStartIndex+0x14>
  ea:	80 81       	ld	r24, Z
  ec:	8b 32       	cpi	r24, 0x2B	; 43
  ee:	11 f4       	brne	.+4      	; 0xf4 <cmdGetStartIndex+0x14>
  f0:	89 2f       	mov	r24, r25
  f2:	08 95       	ret
  f4:	9f 5f       	subi	r25, 0xFF	; 255
  f6:	9f 3f       	cpi	r25, 0xFF	; 255
  f8:	a9 f7       	brne	.-22     	; 0xe4 <cmdGetStartIndex+0x4>
  fa:	8f ef       	ldi	r24, 0xFF	; 255
  fc:	08 95       	ret

000000fe <cmdParse>:
  fe:	0f 93       	push	r16
 100:	1f 93       	push	r17
 102:	cf 93       	push	r28
 104:	df 93       	push	r29
 106:	8c 01       	movw	r16, r24
 108:	eb 01       	movw	r28, r22
 10a:	0e 94 70 00 	call	0xe0	; 0xe0 <cmdGetStartIndex>
 10e:	8f 3f       	cpi	r24, 0xFF	; 255
 110:	09 f4       	brne	.+2      	; 0x114 <cmdParse+0x16>
 112:	63 c0       	rjmp	.+198    	; 0x1da <cmdParse+0xdc>
 114:	48 2f       	mov	r20, r24
 116:	08 2e       	mov	r0, r24
 118:	00 0c       	add	r0, r0
 11a:	55 0b       	sbc	r21, r21
 11c:	f8 01       	movw	r30, r16
 11e:	e4 0f       	add	r30, r20
 120:	f5 1f       	adc	r31, r21
 122:	92 81       	ldd	r25, Z+2	; 0x02
 124:	98 83       	st	Y, r25
 126:	93 81       	ldd	r25, Z+3	; 0x03
 128:	99 83       	std	Y+1, r25	; 0x01
 12a:	24 81       	ldd	r18, Z+4	; 0x04
 12c:	2a 83       	std	Y+2, r18	; 0x02
 12e:	25 81       	ldd	r18, Z+5	; 0x05
 130:	2b 83       	std	Y+3, r18	; 0x03
 132:	26 81       	ldd	r18, Z+6	; 0x06
 134:	2c 83       	std	Y+4, r18	; 0x04
 136:	fa 01       	movw	r30, r20
 138:	37 96       	adiw	r30, 0x07	; 7
 13a:	e0 0f       	add	r30, r16
 13c:	f1 1f       	adc	r31, r17
 13e:	20 81       	ld	r18, Z
 140:	2d 83       	std	Y+5, r18	; 0x05
 142:	91 11       	cpse	r25, r1
 144:	03 c0       	rjmp	.+6      	; 0x14c <cmdParse+0x4e>
 146:	18 86       	std	Y+8, r1	; 0x08
 148:	1f 82       	std	Y+7, r1	; 0x07
 14a:	07 c0       	rjmp	.+14     	; 0x15a <cmdParse+0x5c>
 14c:	9a 01       	movw	r18, r20
 14e:	28 5f       	subi	r18, 0xF8	; 248
 150:	3f 4f       	sbci	r19, 0xFF	; 255
 152:	20 0f       	add	r18, r16
 154:	31 1f       	adc	r19, r17
 156:	38 87       	std	Y+8, r19	; 0x08
 158:	2f 83       	std	Y+7, r18	; 0x07
 15a:	1e 82       	std	Y+6, r1	; 0x06
 15c:	10 82       	st	Z, r1
 15e:	d8 01       	movw	r26, r16
 160:	a4 0f       	add	r26, r20
 162:	b5 1f       	adc	r27, r21
 164:	48 5f       	subi	r20, 0xF8	; 248
 166:	5f 4f       	sbci	r21, 0xFF	; 255
 168:	40 0f       	add	r20, r16
 16a:	51 1f       	adc	r21, r17
 16c:	30 e0       	ldi	r19, 0x00	; 0
 16e:	68 2f       	mov	r22, r24
 170:	88 0f       	add	r24, r24
 172:	77 0b       	sbc	r23, r23
 174:	27 e0       	ldi	r18, 0x07	; 7
 176:	fb 01       	movw	r30, r22
 178:	9d 91       	ld	r25, X+
 17a:	93 27       	eor	r25, r19
 17c:	88 e0       	ldi	r24, 0x08	; 8
 17e:	99 23       	and	r25, r25
 180:	24 f4       	brge	.+8      	; 0x18a <cmdParse+0x8c>
 182:	99 0f       	add	r25, r25
 184:	39 2f       	mov	r19, r25
 186:	32 27       	eor	r19, r18
 188:	02 c0       	rjmp	.+4      	; 0x18e <cmdParse+0x90>
 18a:	39 2f       	mov	r19, r25
 18c:	33 0f       	add	r19, r19
 18e:	81 50       	subi	r24, 0x01	; 1
 190:	93 2f       	mov	r25, r19
 192:	a9 f7       	brne	.-22     	; 0x17e <cmdParse+0x80>
 194:	a4 17       	cp	r26, r20
 196:	b5 07       	cpc	r27, r21
 198:	71 f7       	brne	.-36     	; 0x176 <cmdParse+0x78>
 19a:	30 93 96 00 	sts	0x0096, r19	; 0x800096 <__data_end>
 19e:	69 81       	ldd	r22, Y+1	; 0x01
 1a0:	66 23       	and	r22, r22
 1a2:	c9 f0       	breq	.+50     	; 0x1d6 <cmdParse+0xd8>
 1a4:	38 96       	adiw	r30, 0x08	; 8
 1a6:	e0 0f       	add	r30, r16
 1a8:	f1 1f       	adc	r31, r17
 1aa:	40 e0       	ldi	r20, 0x00	; 0
 1ac:	57 e0       	ldi	r21, 0x07	; 7
 1ae:	21 91       	ld	r18, Z+
 1b0:	92 2f       	mov	r25, r18
 1b2:	93 27       	eor	r25, r19
 1b4:	28 e0       	ldi	r18, 0x08	; 8
 1b6:	99 23       	and	r25, r25
 1b8:	24 f4       	brge	.+8      	; 0x1c2 <cmdParse+0xc4>
 1ba:	99 0f       	add	r25, r25
 1bc:	39 2f       	mov	r19, r25
 1be:	35 27       	eor	r19, r21
 1c0:	02 c0       	rjmp	.+4      	; 0x1c6 <cmdParse+0xc8>
 1c2:	39 2f       	mov	r19, r25
 1c4:	33 0f       	add	r19, r19
 1c6:	21 50       	subi	r18, 0x01	; 1
 1c8:	93 2f       	mov	r25, r19
 1ca:	a9 f7       	brne	.-22     	; 0x1b6 <cmdParse+0xb8>
 1cc:	4f 5f       	subi	r20, 0xFF	; 255
 1ce:	46 17       	cp	r20, r22
 1d0:	70 f3       	brcs	.-36     	; 0x1ae <cmdParse+0xb0>
 1d2:	30 93 96 00 	sts	0x0096, r19	; 0x800096 <__data_end>
 1d6:	3e 83       	std	Y+6, r19	; 0x06
 1d8:	01 c0       	rjmp	.+2      	; 0x1dc <cmdParse+0xde>
 1da:	81 e0       	ldi	r24, 0x01	; 1
 1dc:	df 91       	pop	r29
 1de:	cf 91       	pop	r28
 1e0:	1f 91       	pop	r17
 1e2:	0f 91       	pop	r16
 1e4:	08 95       	ret

000001e6 <cmdBuildHeader>:

uint8_t	*cmdBuildHeader		( cmd_t *a )					
{			
 1e6:	1f 93       	push	r17
 1e8:	cf 93       	push	r28
 1ea:	df 93       	push	r29
 1ec:	dc 01       	movw	r26, r24
	cmdMsg[CMD_HEADER_CRC]	= 0;
 1ee:	e7 e9       	ldi	r30, 0x97	; 151
 1f0:	f0 e0       	ldi	r31, 0x00	; 0
 1f2:	17 82       	std	Z+7, r1	; 0x07
	
	uint8_t *tmpPtr	= a->dataPtr;
 1f4:	17 96       	adiw	r26, 0x07	; 7
 1f6:	1c 91       	ld	r17, X
 1f8:	17 97       	sbiw	r26, 0x07	; 7
 1fa:	18 96       	adiw	r26, 0x08	; 8
 1fc:	dc 91       	ld	r29, X
 1fe:	18 97       	sbiw	r26, 0x08	; 8
	uint8_t	msgLen	= __CMD_HEADER_ENTRYS__ + a->dataLen;
 200:	11 96       	adiw	r26, 0x01	; 1
 202:	cc 91       	ld	r28, X
 204:	11 97       	sbiw	r26, 0x01	; 1
 206:	c8 5f       	subi	r28, 0xF8	; 248
	
	cmdMsg[CMD_HEADER_START_BYTE1]	= '-';			// Start Byte 1
 208:	8d e2       	ldi	r24, 0x2D	; 45
 20a:	80 83       	st	Z, r24
	cmdMsg[CMD_HEADER_START_BYTE2]	= '+';			// Start Byte 2 
 20c:	8b e2       	ldi	r24, 0x2B	; 43
 20e:	81 83       	std	Z+1, r24	; 0x01
	cmdMsg[CMD_HEADER_ID]			= a->id;		// 0..255
 210:	13 96       	adiw	r26, 0x03	; 3
 212:	8c 91       	ld	r24, X
 214:	13 97       	sbiw	r26, 0x03	; 3
 216:	85 83       	std	Z+5, r24	; 0x05
	cmdMsg[CMD_HEADER_LENGHT]		= msgLen;		// Länge der ganzen Antwort
 218:	c2 83       	std	Z+2, r28	; 0x02
	cmdMsg[CMD_HEADER_DATA_LENGHT]	= a->dataLen;	// Länge der Rohdaten
 21a:	11 96       	adiw	r26, 0x01	; 1
 21c:	8c 91       	ld	r24, X
 21e:	11 97       	sbiw	r26, 0x01	; 1
 220:	83 83       	std	Z+3, r24	; 0x03
	cmdMsg[CMD_HEADER_DATA_TYP]		= a->dataType;	// (u)char , (u)int8 , (u)int16 , (u)int32 usw.
 222:	12 96       	adiw	r26, 0x02	; 2
 224:	8c 91       	ld	r24, X
 226:	12 97       	sbiw	r26, 0x02	; 2
 228:	84 83       	std	Z+4, r24	; 0x04
	cmdMsg[CMD_HEADER_EXITCODE]		= a->exitcode;	// 0..255
 22a:	14 96       	adiw	r26, 0x04	; 4
 22c:	8c 91       	ld	r24, X
 22e:	14 97       	sbiw	r26, 0x04	; 4
 230:	86 83       	std	Z+6, r24	; 0x06
 232:	6f e9       	ldi	r22, 0x9F	; 159
 234:	70 e0       	ldi	r23, 0x00	; 0
	
	/*	Checksumme vom Header bilden
	*/
	uint8_t crc = 0;
 236:	30 e0       	ldi	r19, 0x00	; 0
	for ( i = 0; i < 8; i++ )
	{
		if ( ( data & 0x80 ) != 0 )
		{
			data <<= 1;
			data ^= 0x07;
 238:	47 e0       	ldi	r20, 0x07	; 7
static inline uint8_t cmdCrc8CCITTUpdate ( uint8_t inCrc , uint8_t *inData )
{
	uint8_t   i = 0;
	static uint8_t data = 0;
	
	data = ( inCrc ^ ( *inData ) );
 23a:	21 91       	ld	r18, Z+
 23c:	92 2f       	mov	r25, r18
 23e:	93 27       	eor	r25, r19
 240:	28 e0       	ldi	r18, 0x08	; 8
	
	for ( i = 0; i < 8; i++ )
	{
		if ( ( data & 0x80 ) != 0 )
 242:	99 23       	and	r25, r25
 244:	24 f4       	brge	.+8      	; 0x24e <cmdBuildHeader+0x68>
		{
			data <<= 1;
			data ^= 0x07;
 246:	99 0f       	add	r25, r25
 248:	39 2f       	mov	r19, r25
 24a:	34 27       	eor	r19, r20
 24c:	02 c0       	rjmp	.+4      	; 0x252 <cmdBuildHeader+0x6c>
		}
		else
		{
			data <<= 1;
 24e:	39 2f       	mov	r19, r25
 250:	33 0f       	add	r19, r19
 252:	21 50       	subi	r18, 0x01	; 1
 254:	93 2f       	mov	r25, r19
	uint8_t   i = 0;
	static uint8_t data = 0;
	
	data = ( inCrc ^ ( *inData ) );
	
	for ( i = 0; i < 8; i++ )
 256:	a9 f7       	brne	.-22     	; 0x242 <cmdBuildHeader+0x5c>
	cmdMsg[CMD_HEADER_EXITCODE]		= a->exitcode;	// 0..255
	
	/*	Checksumme vom Header bilden
	*/
	uint8_t crc = 0;
	for ( uint8_t x = 0 ; x < __CMD_HEADER_ENTRYS__ ; x++)
 258:	e6 17       	cp	r30, r22
 25a:	f7 07       	cpc	r31, r23
 25c:	71 f7       	brne	.-36     	; 0x23a <cmdBuildHeader+0x54>
 25e:	30 93 96 00 	sts	0x0096, r19	; 0x800096 <__data_end>
		crc = cmdCrc8CCITTUpdate( crc , &cmdMsg[x] );
	}
	
	/*	Checksumme von Nutzdaten bilden
	*/	
	if ( a->dataLen )
 262:	11 96       	adiw	r26, 0x01	; 1
 264:	5c 91       	ld	r21, X
 266:	11 97       	sbiw	r26, 0x01	; 1
 268:	55 23       	and	r21, r21
 26a:	c1 f0       	breq	.+48     	; 0x29c <cmdBuildHeader+0xb6>
 26c:	e1 2f       	mov	r30, r17
 26e:	fd 2f       	mov	r31, r29
 270:	40 e0       	ldi	r20, 0x00	; 0
	for ( i = 0; i < 8; i++ )
	{
		if ( ( data & 0x80 ) != 0 )
		{
			data <<= 1;
			data ^= 0x07;
 272:	87 e0       	ldi	r24, 0x07	; 7
static inline uint8_t cmdCrc8CCITTUpdate ( uint8_t inCrc , uint8_t *inData )
{
	uint8_t   i = 0;
	static uint8_t data = 0;
	
	data = ( inCrc ^ ( *inData ) );
 274:	91 91       	ld	r25, Z+
 276:	93 27       	eor	r25, r19
 278:	28 e0       	ldi	r18, 0x08	; 8
	
	for ( i = 0; i < 8; i++ )
	{
		if ( ( data & 0x80 ) != 0 )
 27a:	99 23       	and	r25, r25
 27c:	24 f4       	brge	.+8      	; 0x286 <cmdBuildHeader+0xa0>
		{
			data <<= 1;
			data ^= 0x07;
 27e:	99 0f       	add	r25, r25
 280:	39 2f       	mov	r19, r25
 282:	38 27       	eor	r19, r24
 284:	02 c0       	rjmp	.+4      	; 0x28a <cmdBuildHeader+0xa4>
		}
		else
		{
			data <<= 1;
 286:	39 2f       	mov	r19, r25
 288:	33 0f       	add	r19, r19
 28a:	21 50       	subi	r18, 0x01	; 1
 28c:	93 2f       	mov	r25, r19
	uint8_t   i = 0;
	static uint8_t data = 0;
	
	data = ( inCrc ^ ( *inData ) );
	
	for ( i = 0; i < 8; i++ )
 28e:	a9 f7       	brne	.-22     	; 0x27a <cmdBuildHeader+0x94>
	
	/*	Checksumme von Nutzdaten bilden
	*/	
	if ( a->dataLen )
	{
		for ( uint8_t x = 0 ; x < a->dataLen ; x++ )
 290:	4f 5f       	subi	r20, 0xFF	; 255
 292:	45 17       	cp	r20, r21
 294:	78 f3       	brcs	.-34     	; 0x274 <cmdBuildHeader+0x8e>
 296:	30 93 96 00 	sts	0x0096, r19	; 0x800096 <__data_end>
 29a:	04 c0       	rjmp	.+8      	; 0x2a4 <cmdBuildHeader+0xbe>
			crc = cmdCrc8CCITTUpdate( crc , tmpPtr++ );	
		}			
	}
	else
	{
		a->dataPtr = NULL;
 29c:	18 96       	adiw	r26, 0x08	; 8
 29e:	1c 92       	st	X, r1
 2a0:	1e 92       	st	-X, r1
 2a2:	17 97       	sbiw	r26, 0x07	; 7
	}
		
	cmdMsg[CMD_HEADER_CRC] = crc;
 2a4:	30 93 9e 00 	sts	0x009E, r19	; 0x80009e <cmdMsg+0x7>
		
	a->id			= 0;
 2a8:	13 96       	adiw	r26, 0x03	; 3
 2aa:	1c 92       	st	X, r1
 2ac:	13 97       	sbiw	r26, 0x03	; 3
	a->dataType		= 0;
 2ae:	12 96       	adiw	r26, 0x02	; 2
 2b0:	1c 92       	st	X, r1
 2b2:	12 97       	sbiw	r26, 0x02	; 2
	a->exitcode		= 0;
 2b4:	14 96       	adiw	r26, 0x04	; 4
 2b6:	1c 92       	st	X, r1
 2b8:	14 97       	sbiw	r26, 0x04	; 4
			
	a->msgLen = msgLen;
 2ba:	cc 93       	st	X, r28
				
	return cmdMsg;
}
 2bc:	87 e9       	ldi	r24, 0x97	; 151
 2be:	90 e0       	ldi	r25, 0x00	; 0
 2c0:	df 91       	pop	r29
 2c2:	cf 91       	pop	r28
 2c4:	1f 91       	pop	r17
 2c6:	08 95       	ret

000002c8 <cmdBuildAnswer>:

void	cmdBuildAnswer( cmd_t *a , uint8_t id , enum Data_Type_Enum dataType , uint8_t exitcode , uint8_t dataLen , uint8_t *dataPtr )
{
 2c8:	ef 92       	push	r14
 2ca:	ff 92       	push	r15
 2cc:	0f 93       	push	r16
 2ce:	fc 01       	movw	r30, r24
	a->id		= id; // Beschreibt den Nachrichten Type. Damit die gegenstelle die Nachrichten unterscheiden kann
 2d0:	63 83       	std	Z+3, r22	; 0x03
	a->dataType = dataType; // Gibt an um welchen Daten Typ es sich handelt
 2d2:	42 83       	std	Z+2, r20	; 0x02
	a->exitcode = exitcode; // Rückgabewert einer Funktion 
 2d4:	24 83       	std	Z+4, r18	; 0x04
	a->dataPtr	= dataPtr; // Zeiger auf die Daten die gesendet werden sollen
 2d6:	f0 86       	std	Z+8, r15	; 0x08
 2d8:	e7 82       	std	Z+7, r14	; 0x07
	a->dataLen	= dataLen; // Anzahl der Bytes
 2da:	01 83       	std	Z+1, r16	; 0x01
}
 2dc:	0f 91       	pop	r16
 2de:	ff 90       	pop	r15
 2e0:	ef 90       	pop	r14
 2e2:	08 95       	ret

000002e4 <cmdSendAnswer>:

void	cmdSendAnswer		( cmd_t *a )					
{
 2e4:	cf 93       	push	r28
 2e6:	df 93       	push	r29
 2e8:	ec 01       	movw	r28, r24
	uint8_t *cmdBuff  = cmdBuildHeader( (cmd_t*)a );
 2ea:	0e 94 f3 00 	call	0x1e6	; 0x1e6 <cmdBuildHeader>
	uartPutByteStr( cmdBuff , __CMD_HEADER_ENTRYS__ );
 2ee:	68 e0       	ldi	r22, 0x08	; 8
 2f0:	0e 94 11 02 	call	0x422	; 0x422 <uartPutByteStr>
	uartPutByteStr( a->dataPtr , a->dataLen );
 2f4:	69 81       	ldd	r22, Y+1	; 0x01
 2f6:	8f 81       	ldd	r24, Y+7	; 0x07
 2f8:	98 85       	ldd	r25, Y+8	; 0x08
 2fa:	0e 94 11 02 	call	0x422	; 0x422 <uartPutByteStr>
 2fe:	df 91       	pop	r29
 300:	cf 91       	pop	r28
 302:	08 95       	ret

00000304 <__vector_13>:
 304:	1f 92       	push	r1
 306:	0f 92       	push	r0
 308:	0f b6       	in	r0, 0x3f	; 63
 30a:	0f 92       	push	r0
 30c:	11 24       	eor	r1, r1
 30e:	2f 93       	push	r18
 310:	8f 93       	push	r24
 312:	9f 93       	push	r25
 314:	ef 93       	push	r30
 316:	ff 93       	push	r31
 318:	8b b1       	in	r24, 0x0b	; 11
 31a:	2c b1       	in	r18, 0x0c	; 12
 31c:	88 71       	andi	r24, 0x18	; 24
 31e:	e0 91 a3 00 	lds	r30, 0x00A3	; 0x8000a3 <UART_RxHead>
 322:	ef 5f       	subi	r30, 0xFF	; 255
 324:	ef 73       	andi	r30, 0x3F	; 63
 326:	90 91 a2 00 	lds	r25, 0x00A2	; 0x8000a2 <UART_RxTail>
 32a:	e9 17       	cp	r30, r25
 32c:	39 f0       	breq	.+14     	; 0x33c <__vector_13+0x38>
 32e:	e0 93 a3 00 	sts	0x00A3, r30	; 0x8000a3 <UART_RxHead>
 332:	f0 e0       	ldi	r31, 0x00	; 0
 334:	ea 55       	subi	r30, 0x5A	; 90
 336:	ff 4f       	sbci	r31, 0xFF	; 255
 338:	20 83       	st	Z, r18
 33a:	01 c0       	rjmp	.+2      	; 0x33e <__vector_13+0x3a>
 33c:	82 e0       	ldi	r24, 0x02	; 2
 33e:	90 91 a1 00 	lds	r25, 0x00A1	; 0x8000a1 <UART_LastRxError>
 342:	89 2b       	or	r24, r25
 344:	80 93 a1 00 	sts	0x00A1, r24	; 0x8000a1 <UART_LastRxError>
 348:	ff 91       	pop	r31
 34a:	ef 91       	pop	r30
 34c:	9f 91       	pop	r25
 34e:	8f 91       	pop	r24
 350:	2f 91       	pop	r18
 352:	0f 90       	pop	r0
 354:	0f be       	out	0x3f, r0	; 63
 356:	0f 90       	pop	r0
 358:	1f 90       	pop	r1
 35a:	18 95       	reti

0000035c <__vector_14>:
 35c:	1f 92       	push	r1
 35e:	0f 92       	push	r0
 360:	0f b6       	in	r0, 0x3f	; 63
 362:	0f 92       	push	r0
 364:	11 24       	eor	r1, r1
 366:	8f 93       	push	r24
 368:	9f 93       	push	r25
 36a:	ef 93       	push	r30
 36c:	ff 93       	push	r31
 36e:	90 91 a5 00 	lds	r25, 0x00A5	; 0x8000a5 <UART_TxHead>
 372:	80 91 a4 00 	lds	r24, 0x00A4	; 0x8000a4 <UART_TxTail>
 376:	98 17       	cp	r25, r24
 378:	61 f0       	breq	.+24     	; 0x392 <__vector_14+0x36>
 37a:	e0 91 a4 00 	lds	r30, 0x00A4	; 0x8000a4 <UART_TxTail>
 37e:	ef 5f       	subi	r30, 0xFF	; 255
 380:	ef 71       	andi	r30, 0x1F	; 31
 382:	e0 93 a4 00 	sts	0x00A4, r30	; 0x8000a4 <UART_TxTail>
 386:	f0 e0       	ldi	r31, 0x00	; 0
 388:	ea 51       	subi	r30, 0x1A	; 26
 38a:	ff 4f       	sbci	r31, 0xFF	; 255
 38c:	80 81       	ld	r24, Z
 38e:	8c b9       	out	0x0c, r24	; 12
 390:	01 c0       	rjmp	.+2      	; 0x394 <__vector_14+0x38>
 392:	55 98       	cbi	0x0a, 5	; 10
 394:	ff 91       	pop	r31
 396:	ef 91       	pop	r30
 398:	9f 91       	pop	r25
 39a:	8f 91       	pop	r24
 39c:	0f 90       	pop	r0
 39e:	0f be       	out	0x3f, r0	; 63
 3a0:	0f 90       	pop	r0
 3a2:	1f 90       	pop	r1
 3a4:	18 95       	reti

000003a6 <uart_init>:
 3a6:	10 92 a5 00 	sts	0x00A5, r1	; 0x8000a5 <UART_TxHead>
 3aa:	10 92 a4 00 	sts	0x00A4, r1	; 0x8000a4 <UART_TxTail>
 3ae:	10 92 a3 00 	sts	0x00A3, r1	; 0x8000a3 <UART_RxHead>
 3b2:	10 92 a2 00 	sts	0x00A2, r1	; 0x8000a2 <UART_RxTail>
 3b6:	99 23       	and	r25, r25
 3b8:	1c f4       	brge	.+6      	; 0x3c0 <uart_init+0x1a>
 3ba:	22 e0       	ldi	r18, 0x02	; 2
 3bc:	2b b9       	out	0x0b, r18	; 11
 3be:	9f 77       	andi	r25, 0x7F	; 127
 3c0:	90 bd       	out	0x20, r25	; 32
 3c2:	89 b9       	out	0x09, r24	; 9
 3c4:	88 e9       	ldi	r24, 0x98	; 152
 3c6:	8a b9       	out	0x0a, r24	; 10
 3c8:	86 e8       	ldi	r24, 0x86	; 134
 3ca:	80 bd       	out	0x20, r24	; 32
 3cc:	08 95       	ret

000003ce <uart_getc>:
 3ce:	90 91 a3 00 	lds	r25, 0x00A3	; 0x8000a3 <UART_RxHead>
 3d2:	80 91 a2 00 	lds	r24, 0x00A2	; 0x8000a2 <UART_RxTail>
 3d6:	98 17       	cp	r25, r24
 3d8:	81 f0       	breq	.+32     	; 0x3fa <uart_getc+0x2c>
 3da:	e0 91 a2 00 	lds	r30, 0x00A2	; 0x8000a2 <UART_RxTail>
 3de:	ef 5f       	subi	r30, 0xFF	; 255
 3e0:	ef 73       	andi	r30, 0x3F	; 63
 3e2:	e0 93 a2 00 	sts	0x00A2, r30	; 0x8000a2 <UART_RxTail>
 3e6:	f0 e0       	ldi	r31, 0x00	; 0
 3e8:	ea 55       	subi	r30, 0x5A	; 90
 3ea:	ff 4f       	sbci	r31, 0xFF	; 255
 3ec:	80 81       	ld	r24, Z
 3ee:	90 91 a1 00 	lds	r25, 0x00A1	; 0x8000a1 <UART_LastRxError>
 3f2:	10 92 a1 00 	sts	0x00A1, r1	; 0x8000a1 <UART_LastRxError>
 3f6:	90 e0       	ldi	r25, 0x00	; 0
 3f8:	08 95       	ret
 3fa:	80 e0       	ldi	r24, 0x00	; 0
 3fc:	91 e0       	ldi	r25, 0x01	; 1
 3fe:	08 95       	ret

00000400 <uartPutByte>:
 400:	20 91 a5 00 	lds	r18, 0x00A5	; 0x8000a5 <UART_TxHead>
 404:	2f 5f       	subi	r18, 0xFF	; 255
 406:	2f 71       	andi	r18, 0x1F	; 31
 408:	90 91 a4 00 	lds	r25, 0x00A4	; 0x8000a4 <UART_TxTail>
 40c:	29 17       	cp	r18, r25
 40e:	e1 f3       	breq	.-8      	; 0x408 <uartPutByte+0x8>
 410:	e2 2f       	mov	r30, r18
 412:	f0 e0       	ldi	r31, 0x00	; 0
 414:	ea 51       	subi	r30, 0x1A	; 26
 416:	ff 4f       	sbci	r31, 0xFF	; 255
 418:	80 83       	st	Z, r24
 41a:	20 93 a5 00 	sts	0x00A5, r18	; 0x8000a5 <UART_TxHead>
 41e:	55 9a       	sbi	0x0a, 5	; 10
 420:	08 95       	ret

00000422 <uartPutByteStr>:
 422:	0f 93       	push	r16
 424:	1f 93       	push	r17
 426:	cf 93       	push	r28
 428:	df 93       	push	r29
 42a:	00 97       	sbiw	r24, 0x00	; 0
 42c:	81 f0       	breq	.+32     	; 0x44e <uartPutByteStr+0x2c>
 42e:	66 23       	and	r22, r22
 430:	71 f0       	breq	.+28     	; 0x44e <uartPutByteStr+0x2c>
 432:	ec 01       	movw	r28, r24
 434:	61 50       	subi	r22, 0x01	; 1
 436:	06 2f       	mov	r16, r22
 438:	10 e0       	ldi	r17, 0x00	; 0
 43a:	0f 5f       	subi	r16, 0xFF	; 255
 43c:	1f 4f       	sbci	r17, 0xFF	; 255
 43e:	08 0f       	add	r16, r24
 440:	19 1f       	adc	r17, r25
 442:	89 91       	ld	r24, Y+
 444:	0e 94 00 02 	call	0x400	; 0x400 <uartPutByte>
 448:	0c 17       	cp	r16, r28
 44a:	1d 07       	cpc	r17, r29
 44c:	d1 f7       	brne	.-12     	; 0x442 <uartPutByteStr+0x20>
 44e:	df 91       	pop	r29
 450:	cf 91       	pop	r28
 452:	1f 91       	pop	r17
 454:	0f 91       	pop	r16
 456:	08 95       	ret

00000458 <uartReadRingBuff>:
 458:	cf 93       	push	r28
 45a:	df 93       	push	r29
 45c:	ec 01       	movw	r28, r24
 45e:	0e 94 e7 01 	call	0x3ce	; 0x3ce <uart_getc>
 462:	90 fd       	sbrc	r25, 0
 464:	31 c0       	rjmp	.+98     	; 0x4c8 <uartReadRingBuff+0x70>
 466:	81 30       	cpi	r24, 0x01	; 1
 468:	21 e0       	ldi	r18, 0x01	; 1
 46a:	92 07       	cpc	r25, r18
 46c:	28 f0       	brcs	.+10     	; 0x478 <uartReadRingBuff+0x20>
 46e:	10 92 a0 00 	sts	0x00A0, r1	; 0x8000a0 <index.1836>
 472:	80 e0       	ldi	r24, 0x00	; 0
 474:	90 e0       	ldi	r25, 0x00	; 0
 476:	2a c0       	rjmp	.+84     	; 0x4cc <uartReadRingBuff+0x74>
 478:	20 91 9f 00 	lds	r18, 0x009F	; 0x80009f <last.1838>
 47c:	2d 30       	cpi	r18, 0x0D	; 13
 47e:	79 f4       	brne	.+30     	; 0x49e <uartReadRingBuff+0x46>
 480:	8a 30       	cpi	r24, 0x0A	; 10
 482:	91 05       	cpc	r25, r1
 484:	61 f4       	brne	.+24     	; 0x49e <uartReadRingBuff+0x46>
 486:	80 91 a0 00 	lds	r24, 0x00A0	; 0x8000a0 <index.1836>
 48a:	fe 01       	movw	r30, r28
 48c:	e8 0f       	add	r30, r24
 48e:	f1 1d       	adc	r31, r1
 490:	31 97       	sbiw	r30, 0x01	; 1
 492:	10 82       	st	Z, r1
 494:	10 92 a0 00 	sts	0x00A0, r1	; 0x8000a0 <index.1836>
 498:	8c 2f       	mov	r24, r28
 49a:	9d 2f       	mov	r25, r29
 49c:	17 c0       	rjmp	.+46     	; 0x4cc <uartReadRingBuff+0x74>
 49e:	80 93 9f 00 	sts	0x009F, r24	; 0x80009f <last.1838>
 4a2:	20 91 a0 00 	lds	r18, 0x00A0	; 0x8000a0 <index.1836>
 4a6:	20 34       	cpi	r18, 0x40	; 64
 4a8:	28 f0       	brcs	.+10     	; 0x4b4 <uartReadRingBuff+0x5c>
 4aa:	10 92 a0 00 	sts	0x00A0, r1	; 0x8000a0 <index.1836>
 4ae:	80 e0       	ldi	r24, 0x00	; 0
 4b0:	90 e0       	ldi	r25, 0x00	; 0
 4b2:	0c c0       	rjmp	.+24     	; 0x4cc <uartReadRingBuff+0x74>
 4b4:	91 e0       	ldi	r25, 0x01	; 1
 4b6:	92 0f       	add	r25, r18
 4b8:	90 93 a0 00 	sts	0x00A0, r25	; 0x8000a0 <index.1836>
 4bc:	c2 0f       	add	r28, r18
 4be:	d1 1d       	adc	r29, r1
 4c0:	88 83       	st	Y, r24
 4c2:	80 e0       	ldi	r24, 0x00	; 0
 4c4:	90 e0       	ldi	r25, 0x00	; 0
 4c6:	02 c0       	rjmp	.+4      	; 0x4cc <uartReadRingBuff+0x74>
 4c8:	80 e0       	ldi	r24, 0x00	; 0
 4ca:	90 e0       	ldi	r25, 0x00	; 0
 4cc:	df 91       	pop	r29
 4ce:	cf 91       	pop	r28
 4d0:	08 95       	ret

000004d2 <hardware_init>:
 4d2:	8a b3       	in	r24, 0x1a	; 26
 4d4:	88 6f       	ori	r24, 0xF8	; 248
 4d6:	8a bb       	out	0x1a, r24	; 26
 4d8:	84 b3       	in	r24, 0x14	; 20
 4da:	80 6e       	ori	r24, 0xE0	; 224
 4dc:	84 bb       	out	0x14, r24	; 20
 4de:	bf 9a       	sbi	0x17, 7	; 23
 4e0:	be 9a       	sbi	0x17, 6	; 23
 4e2:	a4 9a       	sbi	0x14, 4	; 20
 4e4:	81 b3       	in	r24, 0x11	; 17
 4e6:	8c 6f       	ori	r24, 0xFC	; 252
 4e8:	81 bb       	out	0x11, r24	; 17
 4ea:	84 b3       	in	r24, 0x14	; 20
 4ec:	8c 60       	ori	r24, 0x0C	; 12
 4ee:	84 bb       	out	0x14, r24	; 20
 4f0:	a4 9a       	sbi	0x14, 4	; 20
 4f2:	87 b3       	in	r24, 0x17	; 23
 4f4:	80 7f       	andi	r24, 0xF0	; 240
 4f6:	87 bb       	out	0x17, r24	; 23
 4f8:	d0 98       	cbi	0x1a, 0	; 26
 4fa:	ac 98       	cbi	0x15, 4	; 21
 4fc:	8a b3       	in	r24, 0x1a	; 26
 4fe:	89 7f       	andi	r24, 0xF9	; 249
 500:	8a bb       	out	0x1a, r24	; 26
 502:	08 95       	ret

00000504 <cmdRelais>:
	if( val > max )
	{
		return 0;
	}
	return val;
}
 504:	cf 93       	push	r28
 506:	df 93       	push	r29
 508:	00 d0       	rcall	.+0      	; 0x50a <cmdRelais+0x6>
 50a:	cd b7       	in	r28, 0x3d	; 61
 50c:	de b7       	in	r29, 0x3e	; 62
 50e:	dc 01       	movw	r26, r24
 510:	17 96       	adiw	r26, 0x07	; 7
 512:	ed 91       	ld	r30, X+
 514:	fc 91       	ld	r31, X
 516:	18 97       	sbiw	r26, 0x08	; 8
 518:	90 81       	ld	r25, Z
 51a:	29 2f       	mov	r18, r25
 51c:	30 e0       	ldi	r19, 0x00	; 0
 51e:	81 81       	ldd	r24, Z+1	; 0x01
 520:	81 30       	cpi	r24, 0x01	; 1
 522:	41 f1       	breq	.+80     	; 0x574 <cmdRelais+0x70>
 524:	20 f0       	brcs	.+8      	; 0x52e <cmdRelais+0x2a>
 526:	82 30       	cpi	r24, 0x02	; 2
 528:	09 f4       	brne	.+2      	; 0x52c <cmdRelais+0x28>
 52a:	45 c0       	rjmp	.+138    	; 0x5b6 <cmdRelais+0xb2>
 52c:	52 c0       	rjmp	.+164    	; 0x5d2 <cmdRelais+0xce>
 52e:	27 30       	cpi	r18, 0x07	; 7
 530:	31 05       	cpc	r19, r1
 532:	80 f4       	brcc	.+32     	; 0x554 <cmdRelais+0x50>
 534:	62 b3       	in	r22, 0x12	; 18
 536:	2f 5f       	subi	r18, 0xFF	; 255
 538:	3f 4f       	sbci	r19, 0xFF	; 255
 53a:	41 e0       	ldi	r20, 0x01	; 1
 53c:	50 e0       	ldi	r21, 0x00	; 0
 53e:	fa 01       	movw	r30, r20
 540:	02 c0       	rjmp	.+4      	; 0x546 <cmdRelais+0x42>
 542:	ee 0f       	add	r30, r30
 544:	ff 1f       	adc	r31, r31
 546:	2a 95       	dec	r18
 548:	e2 f7       	brpl	.-8      	; 0x542 <cmdRelais+0x3e>
 54a:	9f 01       	movw	r18, r30
 54c:	20 95       	com	r18
 54e:	26 23       	and	r18, r22
 550:	22 bb       	out	0x12, r18	; 18
 552:	3f c0       	rjmp	.+126    	; 0x5d2 <cmdRelais+0xce>
 554:	65 b3       	in	r22, 0x15	; 21
 556:	25 50       	subi	r18, 0x05	; 5
 558:	31 09       	sbc	r19, r1
 55a:	41 e0       	ldi	r20, 0x01	; 1
 55c:	50 e0       	ldi	r21, 0x00	; 0
 55e:	da 01       	movw	r26, r20
 560:	02 c0       	rjmp	.+4      	; 0x566 <cmdRelais+0x62>
 562:	aa 0f       	add	r26, r26
 564:	bb 1f       	adc	r27, r27
 566:	2a 95       	dec	r18
 568:	e2 f7       	brpl	.-8      	; 0x562 <cmdRelais+0x5e>
 56a:	9d 01       	movw	r18, r26
 56c:	20 95       	com	r18
 56e:	26 23       	and	r18, r22
 570:	25 bb       	out	0x15, r18	; 21
 572:	2f c0       	rjmp	.+94     	; 0x5d2 <cmdRelais+0xce>
 574:	27 30       	cpi	r18, 0x07	; 7
 576:	31 05       	cpc	r19, r1
 578:	78 f4       	brcc	.+30     	; 0x598 <cmdRelais+0x94>
 57a:	62 b3       	in	r22, 0x12	; 18
 57c:	2f 5f       	subi	r18, 0xFF	; 255
 57e:	3f 4f       	sbci	r19, 0xFF	; 255
 580:	41 e0       	ldi	r20, 0x01	; 1
 582:	50 e0       	ldi	r21, 0x00	; 0
 584:	fa 01       	movw	r30, r20
 586:	02 c0       	rjmp	.+4      	; 0x58c <cmdRelais+0x88>
 588:	ee 0f       	add	r30, r30
 58a:	ff 1f       	adc	r31, r31
 58c:	2a 95       	dec	r18
 58e:	e2 f7       	brpl	.-8      	; 0x588 <cmdRelais+0x84>
 590:	9f 01       	movw	r18, r30
 592:	26 2b       	or	r18, r22
 594:	22 bb       	out	0x12, r18	; 18
 596:	1d c0       	rjmp	.+58     	; 0x5d2 <cmdRelais+0xce>
 598:	65 b3       	in	r22, 0x15	; 21
 59a:	25 50       	subi	r18, 0x05	; 5
 59c:	31 09       	sbc	r19, r1
 59e:	41 e0       	ldi	r20, 0x01	; 1
 5a0:	50 e0       	ldi	r21, 0x00	; 0
 5a2:	da 01       	movw	r26, r20
 5a4:	02 c0       	rjmp	.+4      	; 0x5aa <cmdRelais+0xa6>
 5a6:	aa 0f       	add	r26, r26
 5a8:	bb 1f       	adc	r27, r27
 5aa:	2a 95       	dec	r18
 5ac:	e2 f7       	brpl	.-8      	; 0x5a6 <cmdRelais+0xa2>
 5ae:	9d 01       	movw	r18, r26
 5b0:	26 2b       	or	r18, r22
 5b2:	25 bb       	out	0x15, r18	; 21
 5b4:	0e c0       	rjmp	.+28     	; 0x5d2 <cmdRelais+0xce>
 5b6:	29 2f       	mov	r18, r25
 5b8:	22 0f       	add	r18, r18
 5ba:	22 0f       	add	r18, r18
 5bc:	22 bb       	out	0x12, r18	; 18
 5be:	29 2f       	mov	r18, r25
 5c0:	20 7c       	andi	r18, 0xC0	; 192
 5c2:	30 e0       	ldi	r19, 0x00	; 0
 5c4:	32 95       	swap	r19
 5c6:	22 95       	swap	r18
 5c8:	2f 70       	andi	r18, 0x0F	; 15
 5ca:	23 27       	eor	r18, r19
 5cc:	3f 70       	andi	r19, 0x0F	; 15
 5ce:	23 27       	eor	r18, r19
 5d0:	25 bb       	out	0x15, r18	; 21
 5d2:	99 83       	std	Y+1, r25	; 0x01
 5d4:	8a 83       	std	Y+2, r24	; 0x02
 5d6:	e2 e1       	ldi	r30, 0x12	; 18
 5d8:	f5 e0       	ldi	r31, 0x05	; 5
 5da:	13 82       	std	Z+3, r1	; 0x03
 5dc:	14 82       	std	Z+4, r1	; 0x04
 5de:	ce 01       	movw	r24, r28
 5e0:	01 96       	adiw	r24, 0x01	; 1
 5e2:	90 87       	std	Z+8, r25	; 0x08
 5e4:	87 83       	std	Z+7, r24	; 0x07
 5e6:	82 e0       	ldi	r24, 0x02	; 2
 5e8:	81 83       	std	Z+1, r24	; 0x01
 5ea:	cf 01       	movw	r24, r30
 5ec:	0e 94 72 01 	call	0x2e4	; 0x2e4 <cmdSendAnswer>
 5f0:	80 e0       	ldi	r24, 0x00	; 0
 5f2:	0f 90       	pop	r0
 5f4:	0f 90       	pop	r0
 5f6:	df 91       	pop	r29
 5f8:	cf 91       	pop	r28
 5fa:	08 95       	ret

000005fc <cmdVersion>:
 5fc:	ef 92       	push	r14
 5fe:	ff 92       	push	r15
 600:	0f 93       	push	r16
 602:	0e 94 49 00 	call	0x92	; 0x92 <buildVer>
 606:	7c 01       	movw	r14, r24
 608:	00 e1       	ldi	r16, 0x10	; 16
 60a:	20 e0       	ldi	r18, 0x00	; 0
 60c:	44 e0       	ldi	r20, 0x04	; 4
 60e:	61 e0       	ldi	r22, 0x01	; 1
 610:	82 e1       	ldi	r24, 0x12	; 18
 612:	95 e0       	ldi	r25, 0x05	; 5
 614:	0e 94 64 01 	call	0x2c8	; 0x2c8 <cmdBuildAnswer>
 618:	82 e1       	ldi	r24, 0x12	; 18
 61a:	95 e0       	ldi	r25, 0x05	; 5
 61c:	0e 94 72 01 	call	0x2e4	; 0x2e4 <cmdSendAnswer>
 620:	80 e0       	ldi	r24, 0x00	; 0
 622:	0f 91       	pop	r16
 624:	ff 90       	pop	r15
 626:	ef 90       	pop	r14
 628:	08 95       	ret

0000062a <cmdState>:
 62a:	ef 92       	push	r14
 62c:	ff 92       	push	r15
 62e:	0f 93       	push	r16
 630:	cf 93       	push	r28
 632:	df 93       	push	r29
 634:	00 d0       	rcall	.+0      	; 0x636 <cmdState+0xc>
 636:	00 d0       	rcall	.+0      	; 0x638 <cmdState+0xe>
 638:	00 d0       	rcall	.+0      	; 0x63a <cmdState+0x10>
 63a:	cd b7       	in	r28, 0x3d	; 61
 63c:	de b7       	in	r29, 0x3e	; 62
 63e:	ec e0       	ldi	r30, 0x0C	; 12
 640:	f5 e0       	ldi	r31, 0x05	; 5
 642:	94 81       	ldd	r25, Z+4	; 0x04
 644:	85 81       	ldd	r24, Z+5	; 0x05
 646:	99 83       	std	Y+1, r25	; 0x01
 648:	8a 83       	std	Y+2, r24	; 0x02
 64a:	92 81       	ldd	r25, Z+2	; 0x02
 64c:	83 81       	ldd	r24, Z+3	; 0x03
 64e:	9b 83       	std	Y+3, r25	; 0x03
 650:	8c 83       	std	Y+4, r24	; 0x04
 652:	90 81       	ld	r25, Z
 654:	81 81       	ldd	r24, Z+1	; 0x01
 656:	9d 83       	std	Y+5, r25	; 0x05
 658:	8e 83       	std	Y+6, r24	; 0x06
 65a:	ce 01       	movw	r24, r28
 65c:	01 96       	adiw	r24, 0x01	; 1
 65e:	7c 01       	movw	r14, r24
 660:	06 e0       	ldi	r16, 0x06	; 6
 662:	20 e0       	ldi	r18, 0x00	; 0
 664:	41 e0       	ldi	r20, 0x01	; 1
 666:	62 e0       	ldi	r22, 0x02	; 2
 668:	82 e1       	ldi	r24, 0x12	; 18
 66a:	95 e0       	ldi	r25, 0x05	; 5
 66c:	0e 94 64 01 	call	0x2c8	; 0x2c8 <cmdBuildAnswer>
 670:	82 e1       	ldi	r24, 0x12	; 18
 672:	95 e0       	ldi	r25, 0x05	; 5
 674:	0e 94 72 01 	call	0x2e4	; 0x2e4 <cmdSendAnswer>
 678:	80 e0       	ldi	r24, 0x00	; 0
 67a:	26 96       	adiw	r28, 0x06	; 6
 67c:	0f b6       	in	r0, 0x3f	; 63
 67e:	f8 94       	cli
 680:	de bf       	out	0x3e, r29	; 62
 682:	0f be       	out	0x3f, r0	; 63
 684:	cd bf       	out	0x3d, r28	; 61
 686:	df 91       	pop	r29
 688:	cf 91       	pop	r28
 68a:	0f 91       	pop	r16
 68c:	ff 90       	pop	r15
 68e:	ef 90       	pop	r14
 690:	08 95       	ret

00000692 <cmdReset>:
 692:	ef 92       	push	r14
 694:	ff 92       	push	r15
 696:	0f 93       	push	r16
 698:	0f 2e       	mov	r0, r31
 69a:	f2 e7       	ldi	r31, 0x72	; 114
 69c:	ef 2e       	mov	r14, r31
 69e:	f0 e0       	ldi	r31, 0x00	; 0
 6a0:	ff 2e       	mov	r15, r31
 6a2:	f0 2d       	mov	r31, r0
 6a4:	06 e0       	ldi	r16, 0x06	; 6
 6a6:	20 e0       	ldi	r18, 0x00	; 0
 6a8:	44 e0       	ldi	r20, 0x04	; 4
 6aa:	63 e0       	ldi	r22, 0x03	; 3
 6ac:	82 e1       	ldi	r24, 0x12	; 18
 6ae:	95 e0       	ldi	r25, 0x05	; 5
 6b0:	0e 94 64 01 	call	0x2c8	; 0x2c8 <cmdBuildAnswer>
 6b4:	82 e1       	ldi	r24, 0x12	; 18
 6b6:	95 e0       	ldi	r25, 0x05	; 5
 6b8:	0e 94 72 01 	call	0x2e4	; 0x2e4 <cmdSendAnswer>
 6bc:	e0 e0       	ldi	r30, 0x00	; 0
 6be:	f0 e0       	ldi	r31, 0x00	; 0
 6c0:	09 95       	icall
 6c2:	80 e0       	ldi	r24, 0x00	; 0
 6c4:	0f 91       	pop	r16
 6c6:	ff 90       	pop	r15
 6c8:	ef 90       	pop	r14
 6ca:	08 95       	ret

000006cc <cmdPing>:
 6cc:	ef 92       	push	r14
 6ce:	ff 92       	push	r15
 6d0:	0f 93       	push	r16
 6d2:	0f 2e       	mov	r0, r31
 6d4:	f9 e7       	ldi	r31, 0x79	; 121
 6d6:	ef 2e       	mov	r14, r31
 6d8:	f0 e0       	ldi	r31, 0x00	; 0
 6da:	ff 2e       	mov	r15, r31
 6dc:	f0 2d       	mov	r31, r0
 6de:	04 e0       	ldi	r16, 0x04	; 4
 6e0:	20 e0       	ldi	r18, 0x00	; 0
 6e2:	44 e0       	ldi	r20, 0x04	; 4
 6e4:	60 e0       	ldi	r22, 0x00	; 0
 6e6:	82 e1       	ldi	r24, 0x12	; 18
 6e8:	95 e0       	ldi	r25, 0x05	; 5
 6ea:	0e 94 64 01 	call	0x2c8	; 0x2c8 <cmdBuildAnswer>
 6ee:	82 e1       	ldi	r24, 0x12	; 18
 6f0:	95 e0       	ldi	r25, 0x05	; 5
 6f2:	0e 94 72 01 	call	0x2e4	; 0x2e4 <cmdSendAnswer>
 6f6:	80 e0       	ldi	r24, 0x00	; 0
 6f8:	0f 91       	pop	r16
 6fa:	ff 90       	pop	r15
 6fc:	ef 90       	pop	r14
 6fe:	08 95       	ret

00000700 <timerInit>:
 700:	8e b5       	in	r24, 0x2e	; 46
 702:	89 60       	ori	r24, 0x09	; 9
 704:	8e bd       	out	0x2e, r24	; 46
 706:	89 b7       	in	r24, 0x39	; 57
 708:	80 61       	ori	r24, 0x10	; 16
 70a:	89 bf       	out	0x39, r24	; 57
 70c:	80 ed       	ldi	r24, 0xD0	; 208
 70e:	97 e0       	ldi	r25, 0x07	; 7
 710:	9b bd       	out	0x2b, r25	; 43
 712:	8a bd       	out	0x2a, r24	; 42
 714:	08 95       	ret

00000716 <main>:
	

int main(void)
{
	hardware_init();
 716:	0e 94 69 02 	call	0x4d2	; 0x4d2 <hardware_init>
	
	uart_init( UART_BAUD_SELECT( 115200 , 16000000 ) );
 71a:	88 e0       	ldi	r24, 0x08	; 8
 71c:	90 e0       	ldi	r25, 0x00	; 0
 71e:	0e 94 d3 01 	call	0x3a6	; 0x3a6 <uart_init>
	
	cmdInit( &cmd );
 722:	82 e1       	ldi	r24, 0x12	; 18
 724:	95 e0       	ldi	r25, 0x05	; 5
 726:	0e 94 65 00 	call	0xca	; 0xca <cmdInit>
	
	timerInit();
 72a:	0e 94 80 03 	call	0x700	; 0x700 <timerInit>

	sei();
 72e:	78 94       	sei

	cmdBuildAnswer( &cmd , ID_APPLICATION , DATA_TYP_STRING , 0 , 4 , (uint8_t*)"Boot");
 730:	0f 2e       	mov	r0, r31
 732:	fe e7       	ldi	r31, 0x7E	; 126
 734:	ef 2e       	mov	r14, r31
 736:	f0 e0       	ldi	r31, 0x00	; 0
 738:	ff 2e       	mov	r15, r31
 73a:	f0 2d       	mov	r31, r0
 73c:	04 e0       	ldi	r16, 0x04	; 4
 73e:	20 e0       	ldi	r18, 0x00	; 0
 740:	44 e0       	ldi	r20, 0x04	; 4
 742:	6f ef       	ldi	r22, 0xFF	; 255
 744:	82 e1       	ldi	r24, 0x12	; 18
 746:	95 e0       	ldi	r25, 0x05	; 5
 748:	0e 94 64 01 	call	0x2c8	; 0x2c8 <cmdBuildAnswer>
	cmdSendAnswer( &cmd );
 74c:	82 e1       	ldi	r24, 0x12	; 18
 74e:	95 e0       	ldi	r25, 0x05	; 5
 750:	0e 94 72 01 	call	0x2e4	; 0x2e4 <cmdSendAnswer>
					state.cmdCounter++;
					state.crcOkay++;
					cmdFuncTab[cmd.id].fnc( &cmd );
				}else
				{
					state.crcError++;
 754:	cc e0       	ldi	r28, 0x0C	; 12
 756:	d5 e0       	ldi	r29, 0x05	; 5
	cmdBuildAnswer( &cmd , ID_APPLICATION , DATA_TYP_STRING , 0 , 4 , (uint8_t*)"Boot");
	cmdSendAnswer( &cmd );

	while (1) 
    {			
		streamPtr	= uartReadRingBuff( streamIn );
 758:	8a e0       	ldi	r24, 0x0A	; 10
 75a:	91 e0       	ldi	r25, 0x01	; 1
 75c:	0e 94 2c 02 	call	0x458	; 0x458 <uartReadRingBuff>
 760:	90 93 0b 05 	sts	0x050B, r25	; 0x80050b <streamPtr+0x1>
 764:	80 93 0a 05 	sts	0x050A, r24	; 0x80050a <streamPtr>
		
		if ( streamPtr != NULL )
 768:	00 97       	sbiw	r24, 0x00	; 0
 76a:	b1 f3       	breq	.-20     	; 0x758 <main+0x42>
		{
 			if ( !cmdParse( streamPtr , &cmd ) )
 76c:	62 e1       	ldi	r22, 0x12	; 18
 76e:	75 e0       	ldi	r23, 0x05	; 5
 770:	0e 94 7f 00 	call	0xfe	; 0xfe <cmdParse>
 774:	81 11       	cpse	r24, r1
 776:	f0 cf       	rjmp	.-32     	; 0x758 <main+0x42>
 			{								 
				if( cmd.inCrc == cmd.outCrc && (cmd.id < sizeof(cmdFuncTab) / sizeof(*cmdFuncTab)) )
 778:	e2 e1       	ldi	r30, 0x12	; 18
 77a:	f5 e0       	ldi	r31, 0x05	; 5
 77c:	95 81       	ldd	r25, Z+5	; 0x05
 77e:	86 81       	ldd	r24, Z+6	; 0x06
 780:	98 13       	cpse	r25, r24
 782:	1a c0       	rjmp	.+52     	; 0x7b8 <main+0xa2>
 784:	e0 91 15 05 	lds	r30, 0x0515	; 0x800515 <cmd+0x3>
 788:	e5 30       	cpi	r30, 0x05	; 5
 78a:	b0 f4       	brcc	.+44     	; 0x7b8 <main+0xa2>
				{
					state.cmdCounter++;
 78c:	8c 81       	ldd	r24, Y+4	; 0x04
 78e:	9d 81       	ldd	r25, Y+5	; 0x05
 790:	01 96       	adiw	r24, 0x01	; 1
 792:	9d 83       	std	Y+5, r25	; 0x05
 794:	8c 83       	std	Y+4, r24	; 0x04
					state.crcOkay++;
 796:	8a 81       	ldd	r24, Y+2	; 0x02
 798:	9b 81       	ldd	r25, Y+3	; 0x03
 79a:	01 96       	adiw	r24, 0x01	; 1
 79c:	9b 83       	std	Y+3, r25	; 0x03
 79e:	8a 83       	std	Y+2, r24	; 0x02
					cmdFuncTab[cmd.id].fnc( &cmd );
 7a0:	f0 e0       	ldi	r31, 0x00	; 0
 7a2:	ee 0f       	add	r30, r30
 7a4:	ff 1f       	adc	r31, r31
 7a6:	e5 57       	subi	r30, 0x75	; 117
 7a8:	ff 4f       	sbci	r31, 0xFF	; 255
 7aa:	01 90       	ld	r0, Z+
 7ac:	f0 81       	ld	r31, Z
 7ae:	e0 2d       	mov	r30, r0
 7b0:	82 e1       	ldi	r24, 0x12	; 18
 7b2:	95 e0       	ldi	r25, 0x05	; 5
 7b4:	09 95       	icall
 7b6:	d0 cf       	rjmp	.-96     	; 0x758 <main+0x42>
				}else
				{
					state.crcError++;
 7b8:	88 81       	ld	r24, Y
 7ba:	99 81       	ldd	r25, Y+1	; 0x01
 7bc:	01 96       	adiw	r24, 0x01	; 1
 7be:	99 83       	std	Y+1, r25	; 0x01
 7c0:	88 83       	st	Y, r24
					cmdBuildAnswer( &cmd , ID_APPLICATION , DATA_TYP_STRING , 0 , 7 , (uint8_t*)"cmd_bad" );
 7c2:	0f 2e       	mov	r0, r31
 7c4:	f3 e8       	ldi	r31, 0x83	; 131
 7c6:	ef 2e       	mov	r14, r31
 7c8:	f0 e0       	ldi	r31, 0x00	; 0
 7ca:	ff 2e       	mov	r15, r31
 7cc:	f0 2d       	mov	r31, r0
 7ce:	07 e0       	ldi	r16, 0x07	; 7
 7d0:	20 e0       	ldi	r18, 0x00	; 0
 7d2:	44 e0       	ldi	r20, 0x04	; 4
 7d4:	6f ef       	ldi	r22, 0xFF	; 255
 7d6:	82 e1       	ldi	r24, 0x12	; 18
 7d8:	95 e0       	ldi	r25, 0x05	; 5
 7da:	0e 94 64 01 	call	0x2c8	; 0x2c8 <cmdBuildAnswer>
					cmdSendAnswer( &cmd );
 7de:	82 e1       	ldi	r24, 0x12	; 18
 7e0:	95 e0       	ldi	r25, 0x05	; 5
 7e2:	0e 94 72 01 	call	0x2e4	; 0x2e4 <cmdSendAnswer>
 7e6:	b8 cf       	rjmp	.-144    	; 0x758 <main+0x42>

000007e8 <__vector_7>:
    }
}

/* live the CPU?*/
ISR(TIMER1_COMPA_vect)
{
 7e8:	1f 92       	push	r1
 7ea:	0f 92       	push	r0
 7ec:	0f b6       	in	r0, 0x3f	; 63
 7ee:	0f 92       	push	r0
 7f0:	11 24       	eor	r1, r1
 7f2:	2f 93       	push	r18
 7f4:	4f 93       	push	r20
 7f6:	5f 93       	push	r21
 7f8:	6f 93       	push	r22
 7fa:	7f 93       	push	r23
 7fc:	8f 93       	push	r24
 7fe:	9f 93       	push	r25
 800:	af 93       	push	r26
 802:	bf 93       	push	r27
	static uint32_t stateLED = 0;
	
	/*
	*	Status Anzeige
	*/
	stateLED = checkMaxValue( ++stateLED , 10e3 );
 804:	80 91 06 01 	lds	r24, 0x0106	; 0x800106 <stateLED.2262>
 808:	90 91 07 01 	lds	r25, 0x0107	; 0x800107 <stateLED.2262+0x1>
 80c:	a0 91 08 01 	lds	r26, 0x0108	; 0x800108 <stateLED.2262+0x2>
 810:	b0 91 09 01 	lds	r27, 0x0109	; 0x800109 <stateLED.2262+0x3>
 814:	01 96       	adiw	r24, 0x01	; 1
 816:	a1 1d       	adc	r26, r1
 818:	b1 1d       	adc	r27, r1
	OCR1A   = ( (uint16_t)( F_CPU / 1 / 8000 ) );	
}

uint16_t	checkMaxValue	( uint16_t val , uint16_t max )		
{
	if( val > max )
 81a:	81 31       	cpi	r24, 0x11	; 17
 81c:	27 e2       	ldi	r18, 0x27	; 39
 81e:	92 07       	cpc	r25, r18
 820:	b0 f5       	brcc	.+108    	; 0x88e <__stack+0x2f>
 822:	aa 27       	eor	r26, r26
 824:	bb 27       	eor	r27, r27
	static uint32_t stateLED = 0;
	
	/*
	*	Status Anzeige
	*/
	stateLED = checkMaxValue( ++stateLED , 10e3 );
 826:	80 93 06 01 	sts	0x0106, r24	; 0x800106 <stateLED.2262>
 82a:	90 93 07 01 	sts	0x0107, r25	; 0x800107 <stateLED.2262+0x1>
 82e:	a0 93 08 01 	sts	0x0108, r26	; 0x800108 <stateLED.2262+0x2>
 832:	b0 93 09 01 	sts	0x0109, r27	; 0x800109 <stateLED.2262+0x3>
	
	if ( stateLED <= 200 )
 836:	89 3c       	cpi	r24, 0xC9	; 201
 838:	91 05       	cpc	r25, r1
 83a:	a1 05       	cpc	r26, r1
 83c:	b1 05       	cpc	r27, r1
 83e:	10 f4       	brcc	.+4      	; 0x844 <__vector_7+0x5c>
	{
		BC(LED_HEARTBEAT_PORT,LED_HEARTBEAT_bp);
 840:	c7 98       	cbi	0x18, 7	; 24
 842:	2e c0       	rjmp	.+92     	; 0x8a0 <__stack+0x41>
	}
	else if ( ( stateLED >= 400 ) && ( stateLED <= 600 ) )
 844:	ac 01       	movw	r20, r24
 846:	bd 01       	movw	r22, r26
 848:	40 59       	subi	r20, 0x90	; 144
 84a:	51 40       	sbci	r21, 0x01	; 1
 84c:	61 09       	sbc	r22, r1
 84e:	71 09       	sbc	r23, r1
 850:	49 3c       	cpi	r20, 0xC9	; 201
 852:	51 05       	cpc	r21, r1
 854:	61 05       	cpc	r22, r1
 856:	71 05       	cpc	r23, r1
 858:	10 f4       	brcc	.+4      	; 0x85e <__vector_7+0x76>
	{
		BS(LED_HEARTBEAT_PORT,LED_HEARTBEAT_bp);
 85a:	c7 9a       	sbi	0x18, 7	; 24
 85c:	21 c0       	rjmp	.+66     	; 0x8a0 <__stack+0x41>
	}
	else if ( ( stateLED >= 1000 ) && ( stateLED <= 1400 ) )
 85e:	ac 01       	movw	r20, r24
 860:	bd 01       	movw	r22, r26
 862:	48 5e       	subi	r20, 0xE8	; 232
 864:	53 40       	sbci	r21, 0x03	; 3
 866:	61 09       	sbc	r22, r1
 868:	71 09       	sbc	r23, r1
 86a:	41 39       	cpi	r20, 0x91	; 145
 86c:	51 40       	sbci	r21, 0x01	; 1
 86e:	61 05       	cpc	r22, r1
 870:	71 05       	cpc	r23, r1
 872:	10 f4       	brcc	.+4      	; 0x878 <__stack+0x19>
	{
		BC(LED_HEARTBEAT_PORT,LED_HEARTBEAT_bp);
 874:	c7 98       	cbi	0x18, 7	; 24
 876:	14 c0       	rjmp	.+40     	; 0x8a0 <__stack+0x41>
	}
	else if ( ( stateLED >= 1600 ) && ( stateLED <= 1800 ) )
 878:	80 54       	subi	r24, 0x40	; 64
 87a:	96 40       	sbci	r25, 0x06	; 6
 87c:	a1 09       	sbc	r26, r1
 87e:	b1 09       	sbc	r27, r1
 880:	89 3c       	cpi	r24, 0xC9	; 201
 882:	91 05       	cpc	r25, r1
 884:	a1 05       	cpc	r26, r1
 886:	b1 05       	cpc	r27, r1
 888:	58 f4       	brcc	.+22     	; 0x8a0 <__stack+0x41>
	{
		BS(LED_HEARTBEAT_PORT,LED_HEARTBEAT_bp);
 88a:	c7 9a       	sbi	0x18, 7	; 24
	}
 88c:	09 c0       	rjmp	.+18     	; 0x8a0 <__stack+0x41>
	static uint32_t stateLED = 0;
	
	/*
	*	Status Anzeige
	*/
	stateLED = checkMaxValue( ++stateLED , 10e3 );
 88e:	10 92 06 01 	sts	0x0106, r1	; 0x800106 <stateLED.2262>
 892:	10 92 07 01 	sts	0x0107, r1	; 0x800107 <stateLED.2262+0x1>
 896:	10 92 08 01 	sts	0x0108, r1	; 0x800108 <stateLED.2262+0x2>
 89a:	10 92 09 01 	sts	0x0109, r1	; 0x800109 <stateLED.2262+0x3>
 89e:	d0 cf       	rjmp	.-96     	; 0x840 <__vector_7+0x58>
	}
	else if ( ( stateLED >= 1600 ) && ( stateLED <= 1800 ) )
	{
		BS(LED_HEARTBEAT_PORT,LED_HEARTBEAT_bp);
	}
 8a0:	bf 91       	pop	r27
 8a2:	af 91       	pop	r26
 8a4:	9f 91       	pop	r25
 8a6:	8f 91       	pop	r24
 8a8:	7f 91       	pop	r23
 8aa:	6f 91       	pop	r22
 8ac:	5f 91       	pop	r21
 8ae:	4f 91       	pop	r20
 8b0:	2f 91       	pop	r18
 8b2:	0f 90       	pop	r0
 8b4:	0f be       	out	0x3f, r0	; 63
 8b6:	0f 90       	pop	r0
 8b8:	1f 90       	pop	r1
 8ba:	18 95       	reti

000008bc <_exit>:
 8bc:	f8 94       	cli

000008be <__stop_program>:
 8be:	ff cf       	rjmp	.-2      	; 0x8be <__stop_program>
